ARM GAS  /var/folders/kd/c99kx6qx51n19rszfxl6vhn80000gp/T//ccXLoMma.s 			page 1


   1              		.cpu cortex-m4
   2              		.arch armv7e-m
   3              		.fpu fpv4-sp-d16
   4              		.eabi_attribute 27, 1
   5              		.eabi_attribute 28, 1
   6              		.eabi_attribute 20, 1
   7              		.eabi_attribute 21, 1
   8              		.eabi_attribute 23, 3
   9              		.eabi_attribute 24, 1
  10              		.eabi_attribute 25, 1
  11              		.eabi_attribute 26, 1
  12              		.eabi_attribute 30, 1
  13              		.eabi_attribute 34, 1
  14              		.eabi_attribute 18, 4
  15              		.file	"usbpd_pwr_hw_if.c"
  16              		.text
  17              	.Ltext0:
  18              		.cfi_sections	.debug_frame
  19              		.section	.text.HW_IF_PWR_SetVoltage,"ax",%progbits
  20              		.align	1
  21              		.global	HW_IF_PWR_SetVoltage
  22              		.syntax unified
  23              		.thumb
  24              		.thumb_func
  26              	HW_IF_PWR_SetVoltage:
  27              	.LVL0:
  28              	.LFB947:
  29              		.file 1 "Middlewares/ST/STM32_USBPD_Library/Devices/STM32G4XX/src/usbpd_pwr_hw_if.c"
   1:Middlewares/ST/STM32_USBPD_Library/Devices/STM32G4XX/src/usbpd_pwr_hw_if.c **** /**
   2:Middlewares/ST/STM32_USBPD_Library/Devices/STM32G4XX/src/usbpd_pwr_hw_if.c ****   ******************************************************************************
   3:Middlewares/ST/STM32_USBPD_Library/Devices/STM32G4XX/src/usbpd_pwr_hw_if.c ****   * @file    usbpd_pwr_hw_if.c
   4:Middlewares/ST/STM32_USBPD_Library/Devices/STM32G4XX/src/usbpd_pwr_hw_if.c ****   * @author  MCD Application Team
   5:Middlewares/ST/STM32_USBPD_Library/Devices/STM32G4XX/src/usbpd_pwr_hw_if.c ****   * @brief   This file contains power hardware interface functions.
   6:Middlewares/ST/STM32_USBPD_Library/Devices/STM32G4XX/src/usbpd_pwr_hw_if.c ****   ******************************************************************************
   7:Middlewares/ST/STM32_USBPD_Library/Devices/STM32G4XX/src/usbpd_pwr_hw_if.c ****   * @attention
   8:Middlewares/ST/STM32_USBPD_Library/Devices/STM32G4XX/src/usbpd_pwr_hw_if.c ****   *
   9:Middlewares/ST/STM32_USBPD_Library/Devices/STM32G4XX/src/usbpd_pwr_hw_if.c ****   * Copyright (c) 2019 STMicroelectronics.
  10:Middlewares/ST/STM32_USBPD_Library/Devices/STM32G4XX/src/usbpd_pwr_hw_if.c ****   * All rights reserved.
  11:Middlewares/ST/STM32_USBPD_Library/Devices/STM32G4XX/src/usbpd_pwr_hw_if.c ****   *
  12:Middlewares/ST/STM32_USBPD_Library/Devices/STM32G4XX/src/usbpd_pwr_hw_if.c ****   * This software is licensed under terms that can be found in the LICENSE file
  13:Middlewares/ST/STM32_USBPD_Library/Devices/STM32G4XX/src/usbpd_pwr_hw_if.c ****   * in the root directory of this software component.
  14:Middlewares/ST/STM32_USBPD_Library/Devices/STM32G4XX/src/usbpd_pwr_hw_if.c ****   * If no LICENSE file comes with this software, it is provided AS-IS.
  15:Middlewares/ST/STM32_USBPD_Library/Devices/STM32G4XX/src/usbpd_pwr_hw_if.c ****   *
  16:Middlewares/ST/STM32_USBPD_Library/Devices/STM32G4XX/src/usbpd_pwr_hw_if.c ****   ******************************************************************************
  17:Middlewares/ST/STM32_USBPD_Library/Devices/STM32G4XX/src/usbpd_pwr_hw_if.c ****   */
  18:Middlewares/ST/STM32_USBPD_Library/Devices/STM32G4XX/src/usbpd_pwr_hw_if.c **** 
  19:Middlewares/ST/STM32_USBPD_Library/Devices/STM32G4XX/src/usbpd_pwr_hw_if.c **** /* Includes ------------------------------------------------------------------*/
  20:Middlewares/ST/STM32_USBPD_Library/Devices/STM32G4XX/src/usbpd_pwr_hw_if.c **** #include "usbpd_hw_if.h"
  21:Middlewares/ST/STM32_USBPD_Library/Devices/STM32G4XX/src/usbpd_pwr_hw_if.c **** 
  22:Middlewares/ST/STM32_USBPD_Library/Devices/STM32G4XX/src/usbpd_pwr_hw_if.c **** 
  23:Middlewares/ST/STM32_USBPD_Library/Devices/STM32G4XX/src/usbpd_pwr_hw_if.c **** #define _USBPD_POWER_DEBUG
  24:Middlewares/ST/STM32_USBPD_Library/Devices/STM32G4XX/src/usbpd_pwr_hw_if.c **** #if  defined(_TRACE)
  25:Middlewares/ST/STM32_USBPD_Library/Devices/STM32G4XX/src/usbpd_pwr_hw_if.c **** #include "usbpd_core.h"
  26:Middlewares/ST/STM32_USBPD_Library/Devices/STM32G4XX/src/usbpd_pwr_hw_if.c **** #include "usbpd_trace.h"
  27:Middlewares/ST/STM32_USBPD_Library/Devices/STM32G4XX/src/usbpd_pwr_hw_if.c **** #endif /* _TRACE */
  28:Middlewares/ST/STM32_USBPD_Library/Devices/STM32G4XX/src/usbpd_pwr_hw_if.c **** 
  29:Middlewares/ST/STM32_USBPD_Library/Devices/STM32G4XX/src/usbpd_pwr_hw_if.c **** /* Private typedef -----------------------------------------------------------*/
ARM GAS  /var/folders/kd/c99kx6qx51n19rszfxl6vhn80000gp/T//ccXLoMma.s 			page 2


  30:Middlewares/ST/STM32_USBPD_Library/Devices/STM32G4XX/src/usbpd_pwr_hw_if.c **** /* Private define ------------------------------------------------------------*/
  31:Middlewares/ST/STM32_USBPD_Library/Devices/STM32G4XX/src/usbpd_pwr_hw_if.c **** #if  defined(_TRACE)
  32:Middlewares/ST/STM32_USBPD_Library/Devices/STM32G4XX/src/usbpd_pwr_hw_if.c **** #define POWER_DEBUG(__MSG__,__SIZE__)   USBPD_TRACE_Add(USBPD_TRACE_DEBUG, PortNum, 0,__MSG__,__SIZ
  33:Middlewares/ST/STM32_USBPD_Library/Devices/STM32G4XX/src/usbpd_pwr_hw_if.c **** #else
  34:Middlewares/ST/STM32_USBPD_Library/Devices/STM32G4XX/src/usbpd_pwr_hw_if.c **** #define POWER_DEBUG(__MSG__,__SIZE__)
  35:Middlewares/ST/STM32_USBPD_Library/Devices/STM32G4XX/src/usbpd_pwr_hw_if.c **** #endif /* _TRACE */
  36:Middlewares/ST/STM32_USBPD_Library/Devices/STM32G4XX/src/usbpd_pwr_hw_if.c **** 
  37:Middlewares/ST/STM32_USBPD_Library/Devices/STM32G4XX/src/usbpd_pwr_hw_if.c **** /* Private macro -------------------------------------------------------------*/
  38:Middlewares/ST/STM32_USBPD_Library/Devices/STM32G4XX/src/usbpd_pwr_hw_if.c **** /* Private variables ---------------------------------------------------------*/
  39:Middlewares/ST/STM32_USBPD_Library/Devices/STM32G4XX/src/usbpd_pwr_hw_if.c **** /* Private function prototypes -----------------------------------------------*/
  40:Middlewares/ST/STM32_USBPD_Library/Devices/STM32G4XX/src/usbpd_pwr_hw_if.c **** /* Private functions ---------------------------------------------------------*/
  41:Middlewares/ST/STM32_USBPD_Library/Devices/STM32G4XX/src/usbpd_pwr_hw_if.c **** USBPD_StatusTypeDef HW_IF_PWR_SetVoltage(uint8_t PortNum, uint16_t voltage)
  42:Middlewares/ST/STM32_USBPD_Library/Devices/STM32G4XX/src/usbpd_pwr_hw_if.c **** {
  30              		.loc 1 42 1 view -0
  31              		.cfi_startproc
  32              		@ args = 0, pretend = 0, frame = 0
  33              		@ frame_needed = 0, uses_anonymous_args = 0
  34              		@ link register save eliminated.
  43:Middlewares/ST/STM32_USBPD_Library/Devices/STM32G4XX/src/usbpd_pwr_hw_if.c ****   UNUSED(PortNum);
  35              		.loc 1 43 3 view .LVU1
  44:Middlewares/ST/STM32_USBPD_Library/Devices/STM32G4XX/src/usbpd_pwr_hw_if.c ****   UNUSED(voltage);
  36              		.loc 1 44 3 view .LVU2
  45:Middlewares/ST/STM32_USBPD_Library/Devices/STM32G4XX/src/usbpd_pwr_hw_if.c ****   return USBPD_OK;
  37              		.loc 1 45 3 view .LVU3
  46:Middlewares/ST/STM32_USBPD_Library/Devices/STM32G4XX/src/usbpd_pwr_hw_if.c **** }
  38              		.loc 1 46 1 is_stmt 0 view .LVU4
  39 0000 0020     		movs	r0, #0
  40              	.LVL1:
  41              		.loc 1 46 1 view .LVU5
  42 0002 7047     		bx	lr
  43              		.cfi_endproc
  44              	.LFE947:
  46              		.section	.text.HW_IF_PWR_GetVoltage,"ax",%progbits
  47              		.align	1
  48              		.global	HW_IF_PWR_GetVoltage
  49              		.syntax unified
  50              		.thumb
  51              		.thumb_func
  53              	HW_IF_PWR_GetVoltage:
  54              	.LVL2:
  55              	.LFB948:
  47:Middlewares/ST/STM32_USBPD_Library/Devices/STM32G4XX/src/usbpd_pwr_hw_if.c **** 
  48:Middlewares/ST/STM32_USBPD_Library/Devices/STM32G4XX/src/usbpd_pwr_hw_if.c **** uint16_t HW_IF_PWR_GetVoltage(uint8_t PortNum)
  49:Middlewares/ST/STM32_USBPD_Library/Devices/STM32G4XX/src/usbpd_pwr_hw_if.c **** {
  56              		.loc 1 49 1 is_stmt 1 view -0
  57              		.cfi_startproc
  58              		@ args = 0, pretend = 0, frame = 8
  59              		@ frame_needed = 0, uses_anonymous_args = 0
  60              		.loc 1 49 1 is_stmt 0 view .LVU7
  61 0000 00B5     		push	{lr}
  62              	.LCFI0:
  63              		.cfi_def_cfa_offset 4
  64              		.cfi_offset 14, -4
  65 0002 83B0     		sub	sp, sp, #12
  66              	.LCFI1:
  67              		.cfi_def_cfa_offset 16
  50:Middlewares/ST/STM32_USBPD_Library/Devices/STM32G4XX/src/usbpd_pwr_hw_if.c ****   uint32_t _voltage;
ARM GAS  /var/folders/kd/c99kx6qx51n19rszfxl6vhn80000gp/T//ccXLoMma.s 			page 3


  68              		.loc 1 50 3 is_stmt 1 view .LVU8
  51:Middlewares/ST/STM32_USBPD_Library/Devices/STM32G4XX/src/usbpd_pwr_hw_if.c ****   BSP_USBPD_PWR_VBUSGetVoltage(PortNum, &_voltage);
  69              		.loc 1 51 3 view .LVU9
  70 0004 01A9     		add	r1, sp, #4
  71 0006 FFF7FEFF 		bl	BSP_USBPD_PWR_VBUSGetVoltage
  72              	.LVL3:
  52:Middlewares/ST/STM32_USBPD_Library/Devices/STM32G4XX/src/usbpd_pwr_hw_if.c ****   return (uint16_t)_voltage;
  73              		.loc 1 52 3 view .LVU10
  53:Middlewares/ST/STM32_USBPD_Library/Devices/STM32G4XX/src/usbpd_pwr_hw_if.c **** }
  74              		.loc 1 53 1 is_stmt 0 view .LVU11
  75 000a BDF80400 		ldrh	r0, [sp, #4]
  76 000e 03B0     		add	sp, sp, #12
  77              	.LCFI2:
  78              		.cfi_def_cfa_offset 4
  79              		@ sp needed
  80 0010 5DF804FB 		ldr	pc, [sp], #4
  81              		.cfi_endproc
  82              	.LFE948:
  84              		.section	.text.HW_IF_PWR_GetCurrent,"ax",%progbits
  85              		.align	1
  86              		.global	HW_IF_PWR_GetCurrent
  87              		.syntax unified
  88              		.thumb
  89              		.thumb_func
  91              	HW_IF_PWR_GetCurrent:
  92              	.LVL4:
  93              	.LFB949:
  54:Middlewares/ST/STM32_USBPD_Library/Devices/STM32G4XX/src/usbpd_pwr_hw_if.c **** 
  55:Middlewares/ST/STM32_USBPD_Library/Devices/STM32G4XX/src/usbpd_pwr_hw_if.c **** int16_t HW_IF_PWR_GetCurrent(uint8_t PortNum)
  56:Middlewares/ST/STM32_USBPD_Library/Devices/STM32G4XX/src/usbpd_pwr_hw_if.c **** {
  94              		.loc 1 56 1 is_stmt 1 view -0
  95              		.cfi_startproc
  96              		@ args = 0, pretend = 0, frame = 8
  97              		@ frame_needed = 0, uses_anonymous_args = 0
  98              		.loc 1 56 1 is_stmt 0 view .LVU13
  99 0000 00B5     		push	{lr}
 100              	.LCFI3:
 101              		.cfi_def_cfa_offset 4
 102              		.cfi_offset 14, -4
 103 0002 83B0     		sub	sp, sp, #12
 104              	.LCFI4:
 105              		.cfi_def_cfa_offset 16
  57:Middlewares/ST/STM32_USBPD_Library/Devices/STM32G4XX/src/usbpd_pwr_hw_if.c ****   int32_t _current;
 106              		.loc 1 57 3 is_stmt 1 view .LVU14
  58:Middlewares/ST/STM32_USBPD_Library/Devices/STM32G4XX/src/usbpd_pwr_hw_if.c ****   BSP_USBPD_PWR_VBUSGetCurrent(PortNum, &_current);
 107              		.loc 1 58 3 view .LVU15
 108 0004 01A9     		add	r1, sp, #4
 109 0006 FFF7FEFF 		bl	BSP_USBPD_PWR_VBUSGetCurrent
 110              	.LVL5:
  59:Middlewares/ST/STM32_USBPD_Library/Devices/STM32G4XX/src/usbpd_pwr_hw_if.c ****   return (int16_t)_current;
 111              		.loc 1 59 3 view .LVU16
  60:Middlewares/ST/STM32_USBPD_Library/Devices/STM32G4XX/src/usbpd_pwr_hw_if.c **** }
 112              		.loc 1 60 1 is_stmt 0 view .LVU17
 113 000a BDF90400 		ldrsh	r0, [sp, #4]
 114 000e 03B0     		add	sp, sp, #12
 115              	.LCFI5:
 116              		.cfi_def_cfa_offset 4
ARM GAS  /var/folders/kd/c99kx6qx51n19rszfxl6vhn80000gp/T//ccXLoMma.s 			page 4


 117              		@ sp needed
 118 0010 5DF804FB 		ldr	pc, [sp], #4
 119              		.cfi_endproc
 120              	.LFE949:
 122              		.section	.text.HW_IF_PWR_Enable,"ax",%progbits
 123              		.align	1
 124              		.global	HW_IF_PWR_Enable
 125              		.syntax unified
 126              		.thumb
 127              		.thumb_func
 129              	HW_IF_PWR_Enable:
 130              	.LVL6:
 131              	.LFB950:
  61:Middlewares/ST/STM32_USBPD_Library/Devices/STM32G4XX/src/usbpd_pwr_hw_if.c **** 
  62:Middlewares/ST/STM32_USBPD_Library/Devices/STM32G4XX/src/usbpd_pwr_hw_if.c **** #if defined(_SRC) || defined(_DRP)
  63:Middlewares/ST/STM32_USBPD_Library/Devices/STM32G4XX/src/usbpd_pwr_hw_if.c **** USBPD_StatusTypeDef HW_IF_PWR_Enable(uint8_t PortNum, USBPD_FunctionalState state, CCxPin_TypeDef C
  64:Middlewares/ST/STM32_USBPD_Library/Devices/STM32G4XX/src/usbpd_pwr_hw_if.c ****                                      uint32_t VconnState, USBPD_PortPowerRole_TypeDef role)
  65:Middlewares/ST/STM32_USBPD_Library/Devices/STM32G4XX/src/usbpd_pwr_hw_if.c **** {
 132              		.loc 1 65 1 is_stmt 1 view -0
 133              		.cfi_startproc
 134              		@ args = 4, pretend = 0, frame = 0
 135              		@ frame_needed = 0, uses_anonymous_args = 0
 136              		.loc 1 65 1 is_stmt 0 view .LVU19
 137 0000 08B5     		push	{r3, lr}
 138              	.LCFI6:
 139              		.cfi_def_cfa_offset 8
 140              		.cfi_offset 3, -8
 141              		.cfi_offset 14, -4
  66:Middlewares/ST/STM32_USBPD_Library/Devices/STM32G4XX/src/usbpd_pwr_hw_if.c ****   UNUSED(role);
 142              		.loc 1 66 3 is_stmt 1 view .LVU20
  67:Middlewares/ST/STM32_USBPD_Library/Devices/STM32G4XX/src/usbpd_pwr_hw_if.c ****   int32_t status;
 143              		.loc 1 67 3 view .LVU21
  68:Middlewares/ST/STM32_USBPD_Library/Devices/STM32G4XX/src/usbpd_pwr_hw_if.c ****   if (USBPD_ENABLE == state)
 144              		.loc 1 68 3 view .LVU22
 145              		.loc 1 68 6 is_stmt 0 view .LVU23
 146 0002 0129     		cmp	r1, #1
 147 0004 03D0     		beq	.L12
  69:Middlewares/ST/STM32_USBPD_Library/Devices/STM32G4XX/src/usbpd_pwr_hw_if.c ****   {
  70:Middlewares/ST/STM32_USBPD_Library/Devices/STM32G4XX/src/usbpd_pwr_hw_if.c **** #if defined(_VCONN_SUPPORT)
  71:Middlewares/ST/STM32_USBPD_Library/Devices/STM32G4XX/src/usbpd_pwr_hw_if.c ****     if (USBPD_TRUE == VconnState)
  72:Middlewares/ST/STM32_USBPD_Library/Devices/STM32G4XX/src/usbpd_pwr_hw_if.c ****     {
  73:Middlewares/ST/STM32_USBPD_Library/Devices/STM32G4XX/src/usbpd_pwr_hw_if.c ****       POWER_DEBUG((uint8_t *)"VCONN ON", 8);
  74:Middlewares/ST/STM32_USBPD_Library/Devices/STM32G4XX/src/usbpd_pwr_hw_if.c ****       (void)BSP_USBPD_PWR_VCONNOn(PortNum, Cc);
  75:Middlewares/ST/STM32_USBPD_Library/Devices/STM32G4XX/src/usbpd_pwr_hw_if.c ****     }
  76:Middlewares/ST/STM32_USBPD_Library/Devices/STM32G4XX/src/usbpd_pwr_hw_if.c **** #endif /* _VCONN_SUPPORT */
  77:Middlewares/ST/STM32_USBPD_Library/Devices/STM32G4XX/src/usbpd_pwr_hw_if.c ****     POWER_DEBUG((uint8_t *)"VBUS ON", 7);
  78:Middlewares/ST/STM32_USBPD_Library/Devices/STM32G4XX/src/usbpd_pwr_hw_if.c ****     status = BSP_USBPD_PWR_VBUSOn(PortNum);
  79:Middlewares/ST/STM32_USBPD_Library/Devices/STM32G4XX/src/usbpd_pwr_hw_if.c ****   }
  80:Middlewares/ST/STM32_USBPD_Library/Devices/STM32G4XX/src/usbpd_pwr_hw_if.c ****   else
  81:Middlewares/ST/STM32_USBPD_Library/Devices/STM32G4XX/src/usbpd_pwr_hw_if.c ****   {
  82:Middlewares/ST/STM32_USBPD_Library/Devices/STM32G4XX/src/usbpd_pwr_hw_if.c **** #if defined(_VCONN_SUPPORT)
  83:Middlewares/ST/STM32_USBPD_Library/Devices/STM32G4XX/src/usbpd_pwr_hw_if.c ****     if (VconnState == USBPD_TRUE)
  84:Middlewares/ST/STM32_USBPD_Library/Devices/STM32G4XX/src/usbpd_pwr_hw_if.c ****     {
  85:Middlewares/ST/STM32_USBPD_Library/Devices/STM32G4XX/src/usbpd_pwr_hw_if.c ****       POWER_DEBUG((uint8_t *)"VCONN OFF", 9);
  86:Middlewares/ST/STM32_USBPD_Library/Devices/STM32G4XX/src/usbpd_pwr_hw_if.c ****       (void)BSP_USBPD_PWR_VCONNOff(PortNum, Cc);
  87:Middlewares/ST/STM32_USBPD_Library/Devices/STM32G4XX/src/usbpd_pwr_hw_if.c ****     }
  88:Middlewares/ST/STM32_USBPD_Library/Devices/STM32G4XX/src/usbpd_pwr_hw_if.c **** #endif /* _VCONN_SUPPORT */
ARM GAS  /var/folders/kd/c99kx6qx51n19rszfxl6vhn80000gp/T//ccXLoMma.s 			page 5


  89:Middlewares/ST/STM32_USBPD_Library/Devices/STM32G4XX/src/usbpd_pwr_hw_if.c ****     POWER_DEBUG((uint8_t *)"VBUS OFF", 8);
 148              		.loc 1 89 42 is_stmt 1 view .LVU24
  90:Middlewares/ST/STM32_USBPD_Library/Devices/STM32G4XX/src/usbpd_pwr_hw_if.c ****     status = BSP_USBPD_PWR_VBUSOff(PortNum);
 149              		.loc 1 90 5 view .LVU25
 150              		.loc 1 90 14 is_stmt 0 view .LVU26
 151 0006 FFF7FEFF 		bl	BSP_USBPD_PWR_VBUSOff
 152              	.LVL7:
 153              	.L8:
  91:Middlewares/ST/STM32_USBPD_Library/Devices/STM32G4XX/src/usbpd_pwr_hw_if.c ****   }
  92:Middlewares/ST/STM32_USBPD_Library/Devices/STM32G4XX/src/usbpd_pwr_hw_if.c ****   return (status == BSP_ERROR_NONE) ? USBPD_OK : USBPD_FAIL;
 154              		.loc 1 92 3 is_stmt 1 view .LVU27
 155              		.loc 1 92 48 is_stmt 0 view .LVU28
 156 000a 18B9     		cbnz	r0, .L13
 157              	.LVL8:
 158              	.L9:
  93:Middlewares/ST/STM32_USBPD_Library/Devices/STM32G4XX/src/usbpd_pwr_hw_if.c **** }
 159              		.loc 1 93 1 discriminator 4 view .LVU29
 160 000c 08BD     		pop	{r3, pc}
 161              	.LVL9:
 162              	.L12:
  77:Middlewares/ST/STM32_USBPD_Library/Devices/STM32G4XX/src/usbpd_pwr_hw_if.c ****     status = BSP_USBPD_PWR_VBUSOn(PortNum);
 163              		.loc 1 77 41 is_stmt 1 view .LVU30
  78:Middlewares/ST/STM32_USBPD_Library/Devices/STM32G4XX/src/usbpd_pwr_hw_if.c ****   }
 164              		.loc 1 78 5 view .LVU31
  78:Middlewares/ST/STM32_USBPD_Library/Devices/STM32G4XX/src/usbpd_pwr_hw_if.c ****   }
 165              		.loc 1 78 14 is_stmt 0 view .LVU32
 166 000e FFF7FEFF 		bl	BSP_USBPD_PWR_VBUSOn
 167              	.LVL10:
  78:Middlewares/ST/STM32_USBPD_Library/Devices/STM32G4XX/src/usbpd_pwr_hw_if.c ****   }
 168              		.loc 1 78 14 view .LVU33
 169 0012 FAE7     		b	.L8
 170              	.L13:
  92:Middlewares/ST/STM32_USBPD_Library/Devices/STM32G4XX/src/usbpd_pwr_hw_if.c **** }
 171              		.loc 1 92 48 view .LVU34
 172 0014 1020     		movs	r0, #16
 173              	.LVL11:
  92:Middlewares/ST/STM32_USBPD_Library/Devices/STM32G4XX/src/usbpd_pwr_hw_if.c **** }
 174              		.loc 1 92 48 view .LVU35
 175 0016 F9E7     		b	.L9
 176              		.cfi_endproc
 177              	.LFE950:
 179              		.section	.text.HW_IF_PWR_VBUSIsEnabled,"ax",%progbits
 180              		.align	1
 181              		.global	HW_IF_PWR_VBUSIsEnabled
 182              		.syntax unified
 183              		.thumb
 184              		.thumb_func
 186              	HW_IF_PWR_VBUSIsEnabled:
 187              	.LVL12:
 188              	.LFB951:
  94:Middlewares/ST/STM32_USBPD_Library/Devices/STM32G4XX/src/usbpd_pwr_hw_if.c **** #endif /* _SRC || _DRP */
  95:Middlewares/ST/STM32_USBPD_Library/Devices/STM32G4XX/src/usbpd_pwr_hw_if.c **** 
  96:Middlewares/ST/STM32_USBPD_Library/Devices/STM32G4XX/src/usbpd_pwr_hw_if.c **** USBPD_FunctionalState HW_IF_PWR_VBUSIsEnabled(uint8_t PortNum)
  97:Middlewares/ST/STM32_USBPD_Library/Devices/STM32G4XX/src/usbpd_pwr_hw_if.c **** {
 189              		.loc 1 97 1 is_stmt 1 view -0
 190              		.cfi_startproc
 191              		@ args = 0, pretend = 0, frame = 8
ARM GAS  /var/folders/kd/c99kx6qx51n19rszfxl6vhn80000gp/T//ccXLoMma.s 			page 6


 192              		@ frame_needed = 0, uses_anonymous_args = 0
 193              		.loc 1 97 1 is_stmt 0 view .LVU37
 194 0000 00B5     		push	{lr}
 195              	.LCFI7:
 196              		.cfi_def_cfa_offset 4
 197              		.cfi_offset 14, -4
 198 0002 83B0     		sub	sp, sp, #12
 199              	.LCFI8:
 200              		.cfi_def_cfa_offset 16
  98:Middlewares/ST/STM32_USBPD_Library/Devices/STM32G4XX/src/usbpd_pwr_hw_if.c **** #if defined(_SRC)||defined(_DRP)
  99:Middlewares/ST/STM32_USBPD_Library/Devices/STM32G4XX/src/usbpd_pwr_hw_if.c ****   uint8_t _state;
 201              		.loc 1 99 3 is_stmt 1 view .LVU38
 100:Middlewares/ST/STM32_USBPD_Library/Devices/STM32G4XX/src/usbpd_pwr_hw_if.c ****   BSP_USBPD_PWR_VBUSIsOn(PortNum, &_state);
 202              		.loc 1 100 3 view .LVU39
 203 0004 0DF10701 		add	r1, sp, #7
 204 0008 FFF7FEFF 		bl	BSP_USBPD_PWR_VBUSIsOn
 205              	.LVL13:
 101:Middlewares/ST/STM32_USBPD_Library/Devices/STM32G4XX/src/usbpd_pwr_hw_if.c ****   return (_state == BSP_ERROR_NONE) ? USBPD_DISABLE : USBPD_ENABLE;
 206              		.loc 1 101 3 view .LVU40
 207              		.loc 1 101 53 is_stmt 0 view .LVU41
 208 000c 9DF80700 		ldrb	r0, [sp, #7]	@ zero_extendqisi2
 102:Middlewares/ST/STM32_USBPD_Library/Devices/STM32G4XX/src/usbpd_pwr_hw_if.c **** #else
 103:Middlewares/ST/STM32_USBPD_Library/Devices/STM32G4XX/src/usbpd_pwr_hw_if.c ****   return USBPD_DISABLE;
 104:Middlewares/ST/STM32_USBPD_Library/Devices/STM32G4XX/src/usbpd_pwr_hw_if.c **** #endif /* _SRC || _DRP */
 105:Middlewares/ST/STM32_USBPD_Library/Devices/STM32G4XX/src/usbpd_pwr_hw_if.c **** }
 209              		.loc 1 105 1 view .LVU42
 210 0010 0038     		subs	r0, r0, #0
 211 0012 18BF     		it	ne
 212 0014 0120     		movne	r0, #1
 213 0016 03B0     		add	sp, sp, #12
 214              	.LCFI9:
 215              		.cfi_def_cfa_offset 4
 216              		@ sp needed
 217 0018 5DF804FB 		ldr	pc, [sp], #4
 218              		.cfi_endproc
 219              	.LFE951:
 221              		.text
 222              	.Letext0:
 223              		.file 2 "/opt/homebrew/Cellar/arm-none-eabi-gcc/10.3-2021.10/gcc/arm-none-eabi/include/machine/_de
 224              		.file 3 "/opt/homebrew/Cellar/arm-none-eabi-gcc/10.3-2021.10/gcc/arm-none-eabi/include/sys/_stdint
 225              		.file 4 "Middlewares/ST/STM32_USBPD_Library/Core/inc/usbpd_def.h"
 226              		.file 5 "Drivers/STM32G4xx_HAL_Driver/Inc/stm32g4xx_ll_dma.h"
 227              		.file 6 "Drivers/STM32G4xx_HAL_Driver/Inc/stm32g4xx_ll_tim.h"
 228              		.file 7 "USBPD/usbpd_pwr_user.h"
ARM GAS  /var/folders/kd/c99kx6qx51n19rszfxl6vhn80000gp/T//ccXLoMma.s 			page 7

