ARM GAS  /var/folders/kd/c99kx6qx51n19rszfxl6vhn80000gp/T//ccdYvVMp.s 			page 1


   1              		.cpu cortex-m4
   2              		.arch armv7e-m
   3              		.fpu fpv4-sp-d16
   4              		.eabi_attribute 27, 1
   5              		.eabi_attribute 28, 1
   6              		.eabi_attribute 20, 1
   7              		.eabi_attribute 21, 1
   8              		.eabi_attribute 23, 3
   9              		.eabi_attribute 24, 1
  10              		.eabi_attribute 25, 1
  11              		.eabi_attribute 26, 1
  12              		.eabi_attribute 30, 1
  13              		.eabi_attribute 34, 1
  14              		.eabi_attribute 18, 4
  15              		.file	"usbpd_hw_if_it.c"
  16              		.text
  17              	.Ltext0:
  18              		.cfi_sections	.debug_frame
  19              		.section	.text.PORTx_IRQHandler,"ax",%progbits
  20              		.align	1
  21              		.global	PORTx_IRQHandler
  22              		.syntax unified
  23              		.thumb
  24              		.thumb_func
  26              	PORTx_IRQHandler:
  27              	.LVL0:
  28              	.LFB951:
  29              		.file 1 "Middlewares/ST/STM32_USBPD_Library/Devices/STM32G4XX/src/usbpd_hw_if_it.c"
   1:Middlewares/ST/STM32_USBPD_Library/Devices/STM32G4XX/src/usbpd_hw_if_it.c **** /**
   2:Middlewares/ST/STM32_USBPD_Library/Devices/STM32G4XX/src/usbpd_hw_if_it.c ****   ******************************************************************************
   3:Middlewares/ST/STM32_USBPD_Library/Devices/STM32G4XX/src/usbpd_hw_if_it.c ****   * @file    usbpd_hw_if_it.c
   4:Middlewares/ST/STM32_USBPD_Library/Devices/STM32G4XX/src/usbpd_hw_if_it.c ****   * @author  MCD Application Team
   5:Middlewares/ST/STM32_USBPD_Library/Devices/STM32G4XX/src/usbpd_hw_if_it.c ****   * @brief   This file contains HW interface interrupt routines.
   6:Middlewares/ST/STM32_USBPD_Library/Devices/STM32G4XX/src/usbpd_hw_if_it.c ****   ******************************************************************************
   7:Middlewares/ST/STM32_USBPD_Library/Devices/STM32G4XX/src/usbpd_hw_if_it.c ****   * @attention
   8:Middlewares/ST/STM32_USBPD_Library/Devices/STM32G4XX/src/usbpd_hw_if_it.c ****   *
   9:Middlewares/ST/STM32_USBPD_Library/Devices/STM32G4XX/src/usbpd_hw_if_it.c ****   * Copyright (c) 2019 STMicroelectronics.
  10:Middlewares/ST/STM32_USBPD_Library/Devices/STM32G4XX/src/usbpd_hw_if_it.c ****   * All rights reserved.
  11:Middlewares/ST/STM32_USBPD_Library/Devices/STM32G4XX/src/usbpd_hw_if_it.c ****   *
  12:Middlewares/ST/STM32_USBPD_Library/Devices/STM32G4XX/src/usbpd_hw_if_it.c ****   * This software is licensed under terms that can be found in the LICENSE file
  13:Middlewares/ST/STM32_USBPD_Library/Devices/STM32G4XX/src/usbpd_hw_if_it.c ****   * in the root directory of this software component.
  14:Middlewares/ST/STM32_USBPD_Library/Devices/STM32G4XX/src/usbpd_hw_if_it.c ****   * If no LICENSE file comes with this software, it is provided AS-IS.
  15:Middlewares/ST/STM32_USBPD_Library/Devices/STM32G4XX/src/usbpd_hw_if_it.c ****   *
  16:Middlewares/ST/STM32_USBPD_Library/Devices/STM32G4XX/src/usbpd_hw_if_it.c ****   ******************************************************************************
  17:Middlewares/ST/STM32_USBPD_Library/Devices/STM32G4XX/src/usbpd_hw_if_it.c ****   */
  18:Middlewares/ST/STM32_USBPD_Library/Devices/STM32G4XX/src/usbpd_hw_if_it.c **** 
  19:Middlewares/ST/STM32_USBPD_Library/Devices/STM32G4XX/src/usbpd_hw_if_it.c **** /* Includes ------------------------------------------------------------------*/
  20:Middlewares/ST/STM32_USBPD_Library/Devices/STM32G4XX/src/usbpd_hw_if_it.c **** #include "usbpd_devices_conf.h"
  21:Middlewares/ST/STM32_USBPD_Library/Devices/STM32G4XX/src/usbpd_hw_if_it.c **** #include "usbpd_core.h"
  22:Middlewares/ST/STM32_USBPD_Library/Devices/STM32G4XX/src/usbpd_hw_if_it.c **** #include "usbpd_hw_if.h"
  23:Middlewares/ST/STM32_USBPD_Library/Devices/STM32G4XX/src/usbpd_hw_if_it.c **** #include "usbpd_trace.h"
  24:Middlewares/ST/STM32_USBPD_Library/Devices/STM32G4XX/src/usbpd_hw_if_it.c **** #if defined(_LOW_POWER)
  25:Middlewares/ST/STM32_USBPD_Library/Devices/STM32G4XX/src/usbpd_hw_if_it.c **** #include "usbpd_lowpower.h"
  26:Middlewares/ST/STM32_USBPD_Library/Devices/STM32G4XX/src/usbpd_hw_if_it.c **** #endif /* _LOW_POWER */
  27:Middlewares/ST/STM32_USBPD_Library/Devices/STM32G4XX/src/usbpd_hw_if_it.c **** #if defined(_FRS)
  28:Middlewares/ST/STM32_USBPD_Library/Devices/STM32G4XX/src/usbpd_hw_if_it.c **** #include "usbpd_timersserver.h"
  29:Middlewares/ST/STM32_USBPD_Library/Devices/STM32G4XX/src/usbpd_hw_if_it.c **** #endif /* _FRS */
ARM GAS  /var/folders/kd/c99kx6qx51n19rszfxl6vhn80000gp/T//ccdYvVMp.s 			page 2


  30:Middlewares/ST/STM32_USBPD_Library/Devices/STM32G4XX/src/usbpd_hw_if_it.c **** 
  31:Middlewares/ST/STM32_USBPD_Library/Devices/STM32G4XX/src/usbpd_hw_if_it.c **** /* Private typedef -----------------------------------------------------------*/
  32:Middlewares/ST/STM32_USBPD_Library/Devices/STM32G4XX/src/usbpd_hw_if_it.c **** /* Private define ------------------------------------------------------------*/
  33:Middlewares/ST/STM32_USBPD_Library/Devices/STM32G4XX/src/usbpd_hw_if_it.c **** /* Private macro -------------------------------------------------------------*/
  34:Middlewares/ST/STM32_USBPD_Library/Devices/STM32G4XX/src/usbpd_hw_if_it.c **** /* Private variables ---------------------------------------------------------*/
  35:Middlewares/ST/STM32_USBPD_Library/Devices/STM32G4XX/src/usbpd_hw_if_it.c **** /* Private function prototypes -----------------------------------------------*/
  36:Middlewares/ST/STM32_USBPD_Library/Devices/STM32G4XX/src/usbpd_hw_if_it.c **** /* Private functions ---------------------------------------------------------*/
  37:Middlewares/ST/STM32_USBPD_Library/Devices/STM32G4XX/src/usbpd_hw_if_it.c **** void PORTx_IRQHandler(uint8_t PortNum);
  38:Middlewares/ST/STM32_USBPD_Library/Devices/STM32G4XX/src/usbpd_hw_if_it.c **** 
  39:Middlewares/ST/STM32_USBPD_Library/Devices/STM32G4XX/src/usbpd_hw_if_it.c **** void USBPD_PORT0_IRQHandler(void)
  40:Middlewares/ST/STM32_USBPD_Library/Devices/STM32G4XX/src/usbpd_hw_if_it.c **** {
  41:Middlewares/ST/STM32_USBPD_Library/Devices/STM32G4XX/src/usbpd_hw_if_it.c ****   PORTx_IRQHandler(USBPD_PORT_0);
  42:Middlewares/ST/STM32_USBPD_Library/Devices/STM32G4XX/src/usbpd_hw_if_it.c **** }
  43:Middlewares/ST/STM32_USBPD_Library/Devices/STM32G4XX/src/usbpd_hw_if_it.c **** 
  44:Middlewares/ST/STM32_USBPD_Library/Devices/STM32G4XX/src/usbpd_hw_if_it.c **** void PORTx_IRQHandler(uint8_t PortNum)
  45:Middlewares/ST/STM32_USBPD_Library/Devices/STM32G4XX/src/usbpd_hw_if_it.c **** {
  30              		.loc 1 45 1 view -0
  31              		.cfi_startproc
  32              		@ args = 0, pretend = 0, frame = 0
  33              		@ frame_needed = 0, uses_anonymous_args = 0
  34              		.loc 1 45 1 is_stmt 0 view .LVU1
  35 0000 38B5     		push	{r3, r4, r5, lr}
  36              	.LCFI0:
  37              		.cfi_def_cfa_offset 16
  38              		.cfi_offset 3, -16
  39              		.cfi_offset 4, -12
  40              		.cfi_offset 5, -8
  41              		.cfi_offset 14, -4
  46:Middlewares/ST/STM32_USBPD_Library/Devices/STM32G4XX/src/usbpd_hw_if_it.c ****   UCPD_TypeDef *hucpd = Ports[PortNum].husbpd;
  42              		.loc 1 46 3 is_stmt 1 view .LVU2
  43              		.loc 1 46 17 is_stmt 0 view .LVU3
  44 0002 C0EB0012 		rsb	r2, r0, r0, lsl #4
  45 0006 954B     		ldr	r3, .L31
  46 0008 53F82250 		ldr	r5, [r3, r2, lsl #2]
  47              	.LVL1:
  47:Middlewares/ST/STM32_USBPD_Library/Devices/STM32G4XX/src/usbpd_hw_if_it.c ****   uint32_t _interrupt = LL_UCPD_ReadReg(hucpd, SR);
  48              		.loc 1 47 3 is_stmt 1 view .LVU4
  49              		.loc 1 47 12 is_stmt 0 view .LVU5
  50 000c 6B69     		ldr	r3, [r5, #20]
  51              	.LVL2:
  48:Middlewares/ST/STM32_USBPD_Library/Devices/STM32G4XX/src/usbpd_hw_if_it.c ****   static uint8_t ovrflag = 0;
  52              		.loc 1 48 3 is_stmt 1 view .LVU6
  49:Middlewares/ST/STM32_USBPD_Library/Devices/STM32G4XX/src/usbpd_hw_if_it.c **** 
  50:Middlewares/ST/STM32_USBPD_Library/Devices/STM32G4XX/src/usbpd_hw_if_it.c ****   if ((hucpd->IMR & _interrupt) != 0u)
  53              		.loc 1 50 3 view .LVU7
  54              		.loc 1 50 13 is_stmt 0 view .LVU8
  55 000e 2A69     		ldr	r2, [r5, #16]
  56              		.loc 1 50 6 view .LVU9
  57 0010 1A42     		tst	r2, r3
  58 0012 59D0     		beq	.L1
  59 0014 0446     		mov	r4, r0
  51:Middlewares/ST/STM32_USBPD_Library/Devices/STM32G4XX/src/usbpd_hw_if_it.c ****   {
  52:Middlewares/ST/STM32_USBPD_Library/Devices/STM32G4XX/src/usbpd_hw_if_it.c ****     /* TXIS no need to enable it all the transfer are done by DMA */
  53:Middlewares/ST/STM32_USBPD_Library/Devices/STM32G4XX/src/usbpd_hw_if_it.c ****     if (UCPD_SR_TXMSGDISC == (_interrupt & UCPD_SR_TXMSGDISC))
  60              		.loc 1 53 5 is_stmt 1 view .LVU10
  61              		.loc 1 53 8 is_stmt 0 view .LVU11
  62 0016 13F0020F 		tst	r3, #2
ARM GAS  /var/folders/kd/c99kx6qx51n19rszfxl6vhn80000gp/T//ccdYvVMp.s 			page 3


  63 001a 34D1     		bne	.L20
  54:Middlewares/ST/STM32_USBPD_Library/Devices/STM32G4XX/src/usbpd_hw_if_it.c ****     {
  55:Middlewares/ST/STM32_USBPD_Library/Devices/STM32G4XX/src/usbpd_hw_if_it.c ****       /* Message has been discarded */
  56:Middlewares/ST/STM32_USBPD_Library/Devices/STM32G4XX/src/usbpd_hw_if_it.c ****       LL_UCPD_ClearFlag_TxMSGDISC(hucpd);
  57:Middlewares/ST/STM32_USBPD_Library/Devices/STM32G4XX/src/usbpd_hw_if_it.c ****       CLEAR_BIT(Ports[PortNum].hdmatx->CCR, DMA_CCR_EN);
  58:Middlewares/ST/STM32_USBPD_Library/Devices/STM32G4XX/src/usbpd_hw_if_it.c ****       while ((Ports[PortNum].hdmatx->CCR & DMA_CCR_EN) == DMA_CCR_EN);
  59:Middlewares/ST/STM32_USBPD_Library/Devices/STM32G4XX/src/usbpd_hw_if_it.c ****       Ports[PortNum].cbs.USBPD_HW_IF_TxCompleted(PortNum, 1);
  60:Middlewares/ST/STM32_USBPD_Library/Devices/STM32G4XX/src/usbpd_hw_if_it.c ****       return;
  61:Middlewares/ST/STM32_USBPD_Library/Devices/STM32G4XX/src/usbpd_hw_if_it.c ****     }
  62:Middlewares/ST/STM32_USBPD_Library/Devices/STM32G4XX/src/usbpd_hw_if_it.c **** 
  63:Middlewares/ST/STM32_USBPD_Library/Devices/STM32G4XX/src/usbpd_hw_if_it.c ****     if (UCPD_SR_TXMSGSENT == (_interrupt & UCPD_SR_TXMSGSENT))
  64              		.loc 1 63 5 is_stmt 1 view .LVU12
  65              		.loc 1 63 8 is_stmt 0 view .LVU13
  66 001c 13F0040F 		tst	r3, #4
  67 0020 53D1     		bne	.L21
  64:Middlewares/ST/STM32_USBPD_Library/Devices/STM32G4XX/src/usbpd_hw_if_it.c ****     {
  65:Middlewares/ST/STM32_USBPD_Library/Devices/STM32G4XX/src/usbpd_hw_if_it.c ****       /* Message has been fully transferred */
  66:Middlewares/ST/STM32_USBPD_Library/Devices/STM32G4XX/src/usbpd_hw_if_it.c ****       LL_UCPD_ClearFlag_TxMSGSENT(hucpd);
  67:Middlewares/ST/STM32_USBPD_Library/Devices/STM32G4XX/src/usbpd_hw_if_it.c ****       CLEAR_BIT(Ports[PortNum].hdmatx->CCR, DMA_CCR_EN);
  68:Middlewares/ST/STM32_USBPD_Library/Devices/STM32G4XX/src/usbpd_hw_if_it.c ****       while ((Ports[PortNum].hdmatx->CCR & DMA_CCR_EN) == DMA_CCR_EN);
  69:Middlewares/ST/STM32_USBPD_Library/Devices/STM32G4XX/src/usbpd_hw_if_it.c ****       Ports[PortNum].cbs.USBPD_HW_IF_TxCompleted(PortNum, 0);
  70:Middlewares/ST/STM32_USBPD_Library/Devices/STM32G4XX/src/usbpd_hw_if_it.c **** 
  71:Middlewares/ST/STM32_USBPD_Library/Devices/STM32G4XX/src/usbpd_hw_if_it.c **** #if defined(_LOW_POWER)
  72:Middlewares/ST/STM32_USBPD_Library/Devices/STM32G4XX/src/usbpd_hw_if_it.c ****       UTIL_LPM_SetStopMode(0 == PortNum ? LPM_PE_0 : LPM_PE_1, UTIL_LPM_ENABLE);
  73:Middlewares/ST/STM32_USBPD_Library/Devices/STM32G4XX/src/usbpd_hw_if_it.c **** #endif /* _LOW_POWER */
  74:Middlewares/ST/STM32_USBPD_Library/Devices/STM32G4XX/src/usbpd_hw_if_it.c ****       return;
  75:Middlewares/ST/STM32_USBPD_Library/Devices/STM32G4XX/src/usbpd_hw_if_it.c ****     }
  76:Middlewares/ST/STM32_USBPD_Library/Devices/STM32G4XX/src/usbpd_hw_if_it.c **** 
  77:Middlewares/ST/STM32_USBPD_Library/Devices/STM32G4XX/src/usbpd_hw_if_it.c ****     if (UCPD_SR_TXMSGABT == (_interrupt & UCPD_SR_TXMSGABT))
  68              		.loc 1 77 5 is_stmt 1 view .LVU14
  69              		.loc 1 77 8 is_stmt 0 view .LVU15
  70 0022 13F0080F 		tst	r3, #8
  71 0026 72D1     		bne	.L22
  78:Middlewares/ST/STM32_USBPD_Library/Devices/STM32G4XX/src/usbpd_hw_if_it.c ****     {
  79:Middlewares/ST/STM32_USBPD_Library/Devices/STM32G4XX/src/usbpd_hw_if_it.c ****       LL_UCPD_ClearFlag_TxMSGABT(hucpd);
  80:Middlewares/ST/STM32_USBPD_Library/Devices/STM32G4XX/src/usbpd_hw_if_it.c ****       CLEAR_BIT(Ports[PortNum].hdmatx->CCR, DMA_CCR_EN);
  81:Middlewares/ST/STM32_USBPD_Library/Devices/STM32G4XX/src/usbpd_hw_if_it.c ****       while ((Ports[PortNum].hdmatx->CCR &  DMA_CCR_EN) == DMA_CCR_EN);
  82:Middlewares/ST/STM32_USBPD_Library/Devices/STM32G4XX/src/usbpd_hw_if_it.c ****       Ports[PortNum].cbs.USBPD_HW_IF_TxCompleted(PortNum, 2);
  83:Middlewares/ST/STM32_USBPD_Library/Devices/STM32G4XX/src/usbpd_hw_if_it.c ****       return;
  84:Middlewares/ST/STM32_USBPD_Library/Devices/STM32G4XX/src/usbpd_hw_if_it.c ****     }
  85:Middlewares/ST/STM32_USBPD_Library/Devices/STM32G4XX/src/usbpd_hw_if_it.c **** 
  86:Middlewares/ST/STM32_USBPD_Library/Devices/STM32G4XX/src/usbpd_hw_if_it.c ****     /* HRSTDISC : hard reset sending has been discarded */
  87:Middlewares/ST/STM32_USBPD_Library/Devices/STM32G4XX/src/usbpd_hw_if_it.c ****     if (UCPD_SR_HRSTDISC == (_interrupt & UCPD_SR_HRSTDISC))
  72              		.loc 1 87 5 is_stmt 1 view .LVU16
  73              		.loc 1 87 8 is_stmt 0 view .LVU17
  74 0028 13F0100F 		tst	r3, #16
  75 002c 40F09180 		bne	.L23
  88:Middlewares/ST/STM32_USBPD_Library/Devices/STM32G4XX/src/usbpd_hw_if_it.c ****     {
  89:Middlewares/ST/STM32_USBPD_Library/Devices/STM32G4XX/src/usbpd_hw_if_it.c ****       LL_UCPD_ClearFlag_TxHRSTDISC(hucpd);
  90:Middlewares/ST/STM32_USBPD_Library/Devices/STM32G4XX/src/usbpd_hw_if_it.c ****       return;
  91:Middlewares/ST/STM32_USBPD_Library/Devices/STM32G4XX/src/usbpd_hw_if_it.c ****     }
  92:Middlewares/ST/STM32_USBPD_Library/Devices/STM32G4XX/src/usbpd_hw_if_it.c **** 
  93:Middlewares/ST/STM32_USBPD_Library/Devices/STM32G4XX/src/usbpd_hw_if_it.c ****     /* TXUND : tx underrun detected */
  94:Middlewares/ST/STM32_USBPD_Library/Devices/STM32G4XX/src/usbpd_hw_if_it.c ****     if (UCPD_SR_HRSTSENT == (_interrupt & UCPD_SR_HRSTSENT))
  76              		.loc 1 94 5 is_stmt 1 view .LVU18
  77              		.loc 1 94 8 is_stmt 0 view .LVU19
  78 0030 13F0200F 		tst	r3, #32
ARM GAS  /var/folders/kd/c99kx6qx51n19rszfxl6vhn80000gp/T//ccdYvVMp.s 			page 4


  79 0034 40F09280 		bne	.L24
  95:Middlewares/ST/STM32_USBPD_Library/Devices/STM32G4XX/src/usbpd_hw_if_it.c ****     {
  96:Middlewares/ST/STM32_USBPD_Library/Devices/STM32G4XX/src/usbpd_hw_if_it.c ****       /* Answer not expected by the stack */
  97:Middlewares/ST/STM32_USBPD_Library/Devices/STM32G4XX/src/usbpd_hw_if_it.c ****       LL_UCPD_ClearFlag_TxHRSTSENT(hucpd);
  98:Middlewares/ST/STM32_USBPD_Library/Devices/STM32G4XX/src/usbpd_hw_if_it.c ****       Ports[PortNum].cbs.USBPD_HW_IF_TX_HardResetCompleted(PortNum, USBPD_SOPTYPE_HARD_RESET);
  99:Middlewares/ST/STM32_USBPD_Library/Devices/STM32G4XX/src/usbpd_hw_if_it.c ****       return;
 100:Middlewares/ST/STM32_USBPD_Library/Devices/STM32G4XX/src/usbpd_hw_if_it.c ****     }
 101:Middlewares/ST/STM32_USBPD_Library/Devices/STM32G4XX/src/usbpd_hw_if_it.c **** 
 102:Middlewares/ST/STM32_USBPD_Library/Devices/STM32G4XX/src/usbpd_hw_if_it.c ****     /* TXUND : tx underrun detected */
 103:Middlewares/ST/STM32_USBPD_Library/Devices/STM32G4XX/src/usbpd_hw_if_it.c ****     if (UCPD_SR_TXUND == (_interrupt & UCPD_SR_TXUND))
  80              		.loc 1 103 5 is_stmt 1 view .LVU20
  81              		.loc 1 103 8 is_stmt 0 view .LVU21
  82 0038 13F0400F 		tst	r3, #64
  83 003c 40F09B80 		bne	.L25
 104:Middlewares/ST/STM32_USBPD_Library/Devices/STM32G4XX/src/usbpd_hw_if_it.c ****     {
 105:Middlewares/ST/STM32_USBPD_Library/Devices/STM32G4XX/src/usbpd_hw_if_it.c ****       /* Nothing to do.
 106:Middlewares/ST/STM32_USBPD_Library/Devices/STM32G4XX/src/usbpd_hw_if_it.c ****          The port partner checks the message integrity with CRC, so PRL will repeat the sending.
 107:Middlewares/ST/STM32_USBPD_Library/Devices/STM32G4XX/src/usbpd_hw_if_it.c ****          Can be used for debugging purpose */
 108:Middlewares/ST/STM32_USBPD_Library/Devices/STM32G4XX/src/usbpd_hw_if_it.c ****       LL_UCPD_ClearFlag_TxUND(hucpd);
 109:Middlewares/ST/STM32_USBPD_Library/Devices/STM32G4XX/src/usbpd_hw_if_it.c ****       return;
 110:Middlewares/ST/STM32_USBPD_Library/Devices/STM32G4XX/src/usbpd_hw_if_it.c ****     }
 111:Middlewares/ST/STM32_USBPD_Library/Devices/STM32G4XX/src/usbpd_hw_if_it.c **** 
 112:Middlewares/ST/STM32_USBPD_Library/Devices/STM32G4XX/src/usbpd_hw_if_it.c ****     /* RXNE : not needed the stack only perform transfer by DMA */
 113:Middlewares/ST/STM32_USBPD_Library/Devices/STM32G4XX/src/usbpd_hw_if_it.c ****     /* RXORDDET: not needed so stack will not enabled this interrupt */
 114:Middlewares/ST/STM32_USBPD_Library/Devices/STM32G4XX/src/usbpd_hw_if_it.c ****     if (UCPD_SR_RXORDDET == (_interrupt & UCPD_SR_RXORDDET))
  84              		.loc 1 114 5 is_stmt 1 view .LVU22
  85              		.loc 1 114 8 is_stmt 0 view .LVU23
  86 0040 13F4007F 		tst	r3, #512
  87 0044 40F09C80 		bne	.L26
 115:Middlewares/ST/STM32_USBPD_Library/Devices/STM32G4XX/src/usbpd_hw_if_it.c ****     {
 116:Middlewares/ST/STM32_USBPD_Library/Devices/STM32G4XX/src/usbpd_hw_if_it.c ****       if (LL_UCPD_RXORDSET_CABLE_RESET == hucpd->RX_ORDSET)
 117:Middlewares/ST/STM32_USBPD_Library/Devices/STM32G4XX/src/usbpd_hw_if_it.c ****       {
 118:Middlewares/ST/STM32_USBPD_Library/Devices/STM32G4XX/src/usbpd_hw_if_it.c ****         /* Cable reset detected */
 119:Middlewares/ST/STM32_USBPD_Library/Devices/STM32G4XX/src/usbpd_hw_if_it.c ****         Ports[PortNum].cbs.USBPD_HW_IF_RX_ResetIndication(PortNum, USBPD_SOPTYPE_CABLE_RESET);
 120:Middlewares/ST/STM32_USBPD_Library/Devices/STM32G4XX/src/usbpd_hw_if_it.c ****       }
 121:Middlewares/ST/STM32_USBPD_Library/Devices/STM32G4XX/src/usbpd_hw_if_it.c ****       LL_UCPD_ClearFlag_RxOrderSet(hucpd);
 122:Middlewares/ST/STM32_USBPD_Library/Devices/STM32G4XX/src/usbpd_hw_if_it.c **** #if defined(_LOW_POWER)
 123:Middlewares/ST/STM32_USBPD_Library/Devices/STM32G4XX/src/usbpd_hw_if_it.c ****       UTIL_LPM_SetStopMode(0 == PortNum ? LPM_PE_0 : LPM_PE_1, UTIL_LPM_DISABLE);
 124:Middlewares/ST/STM32_USBPD_Library/Devices/STM32G4XX/src/usbpd_hw_if_it.c **** #endif /* _LOW_POWER */
 125:Middlewares/ST/STM32_USBPD_Library/Devices/STM32G4XX/src/usbpd_hw_if_it.c **** 
 126:Middlewares/ST/STM32_USBPD_Library/Devices/STM32G4XX/src/usbpd_hw_if_it.c ****       /* Forbid message sending */
 127:Middlewares/ST/STM32_USBPD_Library/Devices/STM32G4XX/src/usbpd_hw_if_it.c ****       Ports[PortNum].RXStatus = USBPD_TRUE;
 128:Middlewares/ST/STM32_USBPD_Library/Devices/STM32G4XX/src/usbpd_hw_if_it.c ****       return;
 129:Middlewares/ST/STM32_USBPD_Library/Devices/STM32G4XX/src/usbpd_hw_if_it.c ****     }
 130:Middlewares/ST/STM32_USBPD_Library/Devices/STM32G4XX/src/usbpd_hw_if_it.c **** 
 131:Middlewares/ST/STM32_USBPD_Library/Devices/STM32G4XX/src/usbpd_hw_if_it.c ****     /* Check RXHRSTDET */
 132:Middlewares/ST/STM32_USBPD_Library/Devices/STM32G4XX/src/usbpd_hw_if_it.c ****     if (UCPD_SR_RXHRSTDET == (_interrupt & UCPD_SR_RXHRSTDET))
  88              		.loc 1 132 5 is_stmt 1 view .LVU24
  89              		.loc 1 132 8 is_stmt 0 view .LVU25
  90 0048 13F4806F 		tst	r3, #1024
  91 004c 40F0B180 		bne	.L27
 133:Middlewares/ST/STM32_USBPD_Library/Devices/STM32G4XX/src/usbpd_hw_if_it.c ****     {
 134:Middlewares/ST/STM32_USBPD_Library/Devices/STM32G4XX/src/usbpd_hw_if_it.c ****       Ports[PortNum].cbs.USBPD_HW_IF_RX_ResetIndication(PortNum, USBPD_SOPTYPE_HARD_RESET);
 135:Middlewares/ST/STM32_USBPD_Library/Devices/STM32G4XX/src/usbpd_hw_if_it.c ****       LL_UCPD_ClearFlag_RxHRST(hucpd);
 136:Middlewares/ST/STM32_USBPD_Library/Devices/STM32G4XX/src/usbpd_hw_if_it.c ****       return;
 137:Middlewares/ST/STM32_USBPD_Library/Devices/STM32G4XX/src/usbpd_hw_if_it.c ****     }
 138:Middlewares/ST/STM32_USBPD_Library/Devices/STM32G4XX/src/usbpd_hw_if_it.c **** 
ARM GAS  /var/folders/kd/c99kx6qx51n19rszfxl6vhn80000gp/T//ccdYvVMp.s 			page 5


 139:Middlewares/ST/STM32_USBPD_Library/Devices/STM32G4XX/src/usbpd_hw_if_it.c ****     /* Check RXOVR */
 140:Middlewares/ST/STM32_USBPD_Library/Devices/STM32G4XX/src/usbpd_hw_if_it.c ****     if (UCPD_SR_RXOVR == (_interrupt & UCPD_SR_RXOVR))
  92              		.loc 1 140 5 is_stmt 1 view .LVU26
  93              		.loc 1 140 8 is_stmt 0 view .LVU27
  94 0050 13F4006F 		tst	r3, #2048
  95 0054 40F0BA80 		bne	.L28
 141:Middlewares/ST/STM32_USBPD_Library/Devices/STM32G4XX/src/usbpd_hw_if_it.c ****     {
 142:Middlewares/ST/STM32_USBPD_Library/Devices/STM32G4XX/src/usbpd_hw_if_it.c ****       /* Nothing to do, the message will be discarded and port Partner will try sending again. */
 143:Middlewares/ST/STM32_USBPD_Library/Devices/STM32G4XX/src/usbpd_hw_if_it.c ****       ovrflag = 1;
 144:Middlewares/ST/STM32_USBPD_Library/Devices/STM32G4XX/src/usbpd_hw_if_it.c ****       LL_UCPD_ClearFlag_RxOvr(hucpd);
 145:Middlewares/ST/STM32_USBPD_Library/Devices/STM32G4XX/src/usbpd_hw_if_it.c ****       return;
 146:Middlewares/ST/STM32_USBPD_Library/Devices/STM32G4XX/src/usbpd_hw_if_it.c ****     }
 147:Middlewares/ST/STM32_USBPD_Library/Devices/STM32G4XX/src/usbpd_hw_if_it.c **** 
 148:Middlewares/ST/STM32_USBPD_Library/Devices/STM32G4XX/src/usbpd_hw_if_it.c ****     /* Check RXMSGEND an Rx message has been received */
 149:Middlewares/ST/STM32_USBPD_Library/Devices/STM32G4XX/src/usbpd_hw_if_it.c ****     if (UCPD_SR_RXMSGEND == (_interrupt & UCPD_SR_RXMSGEND))
  96              		.loc 1 149 5 is_stmt 1 view .LVU28
  97              		.loc 1 149 8 is_stmt 0 view .LVU29
  98 0058 13F4805F 		tst	r3, #4096
  99 005c 40F0BE80 		bne	.L29
 150:Middlewares/ST/STM32_USBPD_Library/Devices/STM32G4XX/src/usbpd_hw_if_it.c ****     {
 151:Middlewares/ST/STM32_USBPD_Library/Devices/STM32G4XX/src/usbpd_hw_if_it.c ****       Ports[PortNum].RXStatus = USBPD_FALSE;
 152:Middlewares/ST/STM32_USBPD_Library/Devices/STM32G4XX/src/usbpd_hw_if_it.c **** 
 153:Middlewares/ST/STM32_USBPD_Library/Devices/STM32G4XX/src/usbpd_hw_if_it.c ****       /* For DMA mode, add a check to ensure the number of data received matches
 154:Middlewares/ST/STM32_USBPD_Library/Devices/STM32G4XX/src/usbpd_hw_if_it.c ****          the number of data received by UCPD */
 155:Middlewares/ST/STM32_USBPD_Library/Devices/STM32G4XX/src/usbpd_hw_if_it.c ****       LL_UCPD_ClearFlag_RxMsgEnd(hucpd);
 156:Middlewares/ST/STM32_USBPD_Library/Devices/STM32G4XX/src/usbpd_hw_if_it.c **** 
 157:Middlewares/ST/STM32_USBPD_Library/Devices/STM32G4XX/src/usbpd_hw_if_it.c ****       /* Disable DMA */
 158:Middlewares/ST/STM32_USBPD_Library/Devices/STM32G4XX/src/usbpd_hw_if_it.c ****       CLEAR_BIT(Ports[PortNum].hdmarx->CCR, DMA_CCR_EN);
 159:Middlewares/ST/STM32_USBPD_Library/Devices/STM32G4XX/src/usbpd_hw_if_it.c ****       while ((Ports[PortNum].hdmarx->CCR & DMA_CCR_EN) == DMA_CCR_EN);
 160:Middlewares/ST/STM32_USBPD_Library/Devices/STM32G4XX/src/usbpd_hw_if_it.c **** 
 161:Middlewares/ST/STM32_USBPD_Library/Devices/STM32G4XX/src/usbpd_hw_if_it.c ****       /* Ready for next transaction */
 162:Middlewares/ST/STM32_USBPD_Library/Devices/STM32G4XX/src/usbpd_hw_if_it.c ****       WRITE_REG(Ports[PortNum].hdmarx->CMAR, (uint32_t)Ports[PortNum].ptr_RxBuff);
 163:Middlewares/ST/STM32_USBPD_Library/Devices/STM32G4XX/src/usbpd_hw_if_it.c ****       WRITE_REG(Ports[PortNum].hdmarx->CNDTR, SIZE_MAX_PD_TRANSACTION_UNCHUNK);
 164:Middlewares/ST/STM32_USBPD_Library/Devices/STM32G4XX/src/usbpd_hw_if_it.c **** 
 165:Middlewares/ST/STM32_USBPD_Library/Devices/STM32G4XX/src/usbpd_hw_if_it.c ****       /* Enable the DMA */
 166:Middlewares/ST/STM32_USBPD_Library/Devices/STM32G4XX/src/usbpd_hw_if_it.c ****       SET_BIT(Ports[PortNum].hdmarx->CCR, DMA_CCR_EN);
 167:Middlewares/ST/STM32_USBPD_Library/Devices/STM32G4XX/src/usbpd_hw_if_it.c **** #if defined(_LOW_POWER)
 168:Middlewares/ST/STM32_USBPD_Library/Devices/STM32G4XX/src/usbpd_hw_if_it.c ****       UTIL_LPM_SetStopMode(0 == PortNum ? LPM_PE_0 : LPM_PE_1, UTIL_LPM_ENABLE);
 169:Middlewares/ST/STM32_USBPD_Library/Devices/STM32G4XX/src/usbpd_hw_if_it.c **** #endif /* _LOW_POWER */
 170:Middlewares/ST/STM32_USBPD_Library/Devices/STM32G4XX/src/usbpd_hw_if_it.c **** 
 171:Middlewares/ST/STM32_USBPD_Library/Devices/STM32G4XX/src/usbpd_hw_if_it.c ****       if (((_interrupt & UCPD_SR_RXERR) == 0u) && (ovrflag == 0u))
 172:Middlewares/ST/STM32_USBPD_Library/Devices/STM32G4XX/src/usbpd_hw_if_it.c ****       {
 173:Middlewares/ST/STM32_USBPD_Library/Devices/STM32G4XX/src/usbpd_hw_if_it.c ****         /* Rx message has been received without error */
 174:Middlewares/ST/STM32_USBPD_Library/Devices/STM32G4XX/src/usbpd_hw_if_it.c ****         Ports[PortNum].cbs.USBPD_HW_IF_RX_Completed(PortNum, hucpd->RX_ORDSET & UCPD_RX_ORDSET_RXOR
 175:Middlewares/ST/STM32_USBPD_Library/Devices/STM32G4XX/src/usbpd_hw_if_it.c ****       }
 176:Middlewares/ST/STM32_USBPD_Library/Devices/STM32G4XX/src/usbpd_hw_if_it.c ****       ovrflag = 0;
 177:Middlewares/ST/STM32_USBPD_Library/Devices/STM32G4XX/src/usbpd_hw_if_it.c ****       return;
 178:Middlewares/ST/STM32_USBPD_Library/Devices/STM32G4XX/src/usbpd_hw_if_it.c ****     }
 179:Middlewares/ST/STM32_USBPD_Library/Devices/STM32G4XX/src/usbpd_hw_if_it.c **** 
 180:Middlewares/ST/STM32_USBPD_Library/Devices/STM32G4XX/src/usbpd_hw_if_it.c ****     /* Check TYPECEVT1IE/TYPECEVT1IE || check TYPECEVT2IE/TYPECEVT2IE */
 181:Middlewares/ST/STM32_USBPD_Library/Devices/STM32G4XX/src/usbpd_hw_if_it.c ****     if ((UCPD_SR_TYPECEVT1 == (_interrupt & UCPD_SR_TYPECEVT1))
 100              		.loc 1 181 5 is_stmt 1 view .LVU30
 101              		.loc 1 181 8 is_stmt 0 view .LVU31
 102 0060 13F4404F 		tst	r3, #49152
 103 0064 30D0     		beq	.L1
 182:Middlewares/ST/STM32_USBPD_Library/Devices/STM32G4XX/src/usbpd_hw_if_it.c ****         || (UCPD_SR_TYPECEVT2 == (_interrupt & UCPD_SR_TYPECEVT2)))
 183:Middlewares/ST/STM32_USBPD_Library/Devices/STM32G4XX/src/usbpd_hw_if_it.c ****     {
ARM GAS  /var/folders/kd/c99kx6qx51n19rszfxl6vhn80000gp/T//ccdYvVMp.s 			page 6


 184:Middlewares/ST/STM32_USBPD_Library/Devices/STM32G4XX/src/usbpd_hw_if_it.c ****       /* Clear both interrupt */
 185:Middlewares/ST/STM32_USBPD_Library/Devices/STM32G4XX/src/usbpd_hw_if_it.c ****       LL_UCPD_ClearFlag_TypeCEventCC1(hucpd);
 104              		.loc 1 185 7 is_stmt 1 view .LVU32
 105              	.LVL3:
 106              	.LBB26:
 107              	.LBI26:
 108              		.file 2 "Drivers/STM32G4xx_HAL_Driver/Inc/stm32g4xx_ll_ucpd.h"
   1:Drivers/STM32G4xx_HAL_Driver/Inc/stm32g4xx_ll_ucpd.h **** /**
   2:Drivers/STM32G4xx_HAL_Driver/Inc/stm32g4xx_ll_ucpd.h ****   ******************************************************************************
   3:Drivers/STM32G4xx_HAL_Driver/Inc/stm32g4xx_ll_ucpd.h ****   * @file    stm32g4xx_ll_ucpd.h
   4:Drivers/STM32G4xx_HAL_Driver/Inc/stm32g4xx_ll_ucpd.h ****   * @author  MCD Application Team
   5:Drivers/STM32G4xx_HAL_Driver/Inc/stm32g4xx_ll_ucpd.h ****   * @brief   Header file of UCPD LL module.
   6:Drivers/STM32G4xx_HAL_Driver/Inc/stm32g4xx_ll_ucpd.h ****   ******************************************************************************
   7:Drivers/STM32G4xx_HAL_Driver/Inc/stm32g4xx_ll_ucpd.h ****   * @attention
   8:Drivers/STM32G4xx_HAL_Driver/Inc/stm32g4xx_ll_ucpd.h ****   *
   9:Drivers/STM32G4xx_HAL_Driver/Inc/stm32g4xx_ll_ucpd.h ****   * Copyright (c) 2019 STMicroelectronics.
  10:Drivers/STM32G4xx_HAL_Driver/Inc/stm32g4xx_ll_ucpd.h ****   * All rights reserved.
  11:Drivers/STM32G4xx_HAL_Driver/Inc/stm32g4xx_ll_ucpd.h ****   *
  12:Drivers/STM32G4xx_HAL_Driver/Inc/stm32g4xx_ll_ucpd.h ****   * This software is licensed under terms that can be found in the LICENSE file
  13:Drivers/STM32G4xx_HAL_Driver/Inc/stm32g4xx_ll_ucpd.h ****   * in the root directory of this software component.
  14:Drivers/STM32G4xx_HAL_Driver/Inc/stm32g4xx_ll_ucpd.h ****   * If no LICENSE file comes with this software, it is provided AS-IS.
  15:Drivers/STM32G4xx_HAL_Driver/Inc/stm32g4xx_ll_ucpd.h ****   *
  16:Drivers/STM32G4xx_HAL_Driver/Inc/stm32g4xx_ll_ucpd.h ****   ******************************************************************************
  17:Drivers/STM32G4xx_HAL_Driver/Inc/stm32g4xx_ll_ucpd.h ****   */
  18:Drivers/STM32G4xx_HAL_Driver/Inc/stm32g4xx_ll_ucpd.h **** 
  19:Drivers/STM32G4xx_HAL_Driver/Inc/stm32g4xx_ll_ucpd.h **** /* Define to prevent recursive inclusion -------------------------------------*/
  20:Drivers/STM32G4xx_HAL_Driver/Inc/stm32g4xx_ll_ucpd.h **** #ifndef STM32G4xx_LL_UCPD_H
  21:Drivers/STM32G4xx_HAL_Driver/Inc/stm32g4xx_ll_ucpd.h **** #define STM32G4xx_LL_UCPD_H
  22:Drivers/STM32G4xx_HAL_Driver/Inc/stm32g4xx_ll_ucpd.h **** 
  23:Drivers/STM32G4xx_HAL_Driver/Inc/stm32g4xx_ll_ucpd.h **** #ifdef __cplusplus
  24:Drivers/STM32G4xx_HAL_Driver/Inc/stm32g4xx_ll_ucpd.h **** extern "C" {
  25:Drivers/STM32G4xx_HAL_Driver/Inc/stm32g4xx_ll_ucpd.h **** #endif
  26:Drivers/STM32G4xx_HAL_Driver/Inc/stm32g4xx_ll_ucpd.h **** 
  27:Drivers/STM32G4xx_HAL_Driver/Inc/stm32g4xx_ll_ucpd.h **** /* Includes ------------------------------------------------------------------*/
  28:Drivers/STM32G4xx_HAL_Driver/Inc/stm32g4xx_ll_ucpd.h **** #include "stm32g4xx.h"
  29:Drivers/STM32G4xx_HAL_Driver/Inc/stm32g4xx_ll_ucpd.h **** 
  30:Drivers/STM32G4xx_HAL_Driver/Inc/stm32g4xx_ll_ucpd.h **** /** @addtogroup STM32G4xx_LL_Driver
  31:Drivers/STM32G4xx_HAL_Driver/Inc/stm32g4xx_ll_ucpd.h ****   * @{
  32:Drivers/STM32G4xx_HAL_Driver/Inc/stm32g4xx_ll_ucpd.h ****   */
  33:Drivers/STM32G4xx_HAL_Driver/Inc/stm32g4xx_ll_ucpd.h **** 
  34:Drivers/STM32G4xx_HAL_Driver/Inc/stm32g4xx_ll_ucpd.h **** #if defined (UCPD1)
  35:Drivers/STM32G4xx_HAL_Driver/Inc/stm32g4xx_ll_ucpd.h **** 
  36:Drivers/STM32G4xx_HAL_Driver/Inc/stm32g4xx_ll_ucpd.h **** /** @defgroup UCPD_LL UCPD
  37:Drivers/STM32G4xx_HAL_Driver/Inc/stm32g4xx_ll_ucpd.h ****   * @{
  38:Drivers/STM32G4xx_HAL_Driver/Inc/stm32g4xx_ll_ucpd.h ****   */
  39:Drivers/STM32G4xx_HAL_Driver/Inc/stm32g4xx_ll_ucpd.h **** 
  40:Drivers/STM32G4xx_HAL_Driver/Inc/stm32g4xx_ll_ucpd.h **** /* Private types -------------------------------------------------------------*/
  41:Drivers/STM32G4xx_HAL_Driver/Inc/stm32g4xx_ll_ucpd.h **** /* Private variables ---------------------------------------------------------*/
  42:Drivers/STM32G4xx_HAL_Driver/Inc/stm32g4xx_ll_ucpd.h **** /* Private macros ------------------------------------------------------------*/
  43:Drivers/STM32G4xx_HAL_Driver/Inc/stm32g4xx_ll_ucpd.h **** 
  44:Drivers/STM32G4xx_HAL_Driver/Inc/stm32g4xx_ll_ucpd.h **** /* Exported types ------------------------------------------------------------*/
  45:Drivers/STM32G4xx_HAL_Driver/Inc/stm32g4xx_ll_ucpd.h **** #if defined(USE_FULL_LL_DRIVER)
  46:Drivers/STM32G4xx_HAL_Driver/Inc/stm32g4xx_ll_ucpd.h **** /** @defgroup UCPD_LL_ES_INIT UCPD Exported Init structure
  47:Drivers/STM32G4xx_HAL_Driver/Inc/stm32g4xx_ll_ucpd.h ****   * @{
  48:Drivers/STM32G4xx_HAL_Driver/Inc/stm32g4xx_ll_ucpd.h ****   */
  49:Drivers/STM32G4xx_HAL_Driver/Inc/stm32g4xx_ll_ucpd.h **** 
  50:Drivers/STM32G4xx_HAL_Driver/Inc/stm32g4xx_ll_ucpd.h **** /**
ARM GAS  /var/folders/kd/c99kx6qx51n19rszfxl6vhn80000gp/T//ccdYvVMp.s 			page 7


  51:Drivers/STM32G4xx_HAL_Driver/Inc/stm32g4xx_ll_ucpd.h ****   * @brief  UCPD Init structures definition
  52:Drivers/STM32G4xx_HAL_Driver/Inc/stm32g4xx_ll_ucpd.h ****   */
  53:Drivers/STM32G4xx_HAL_Driver/Inc/stm32g4xx_ll_ucpd.h **** typedef struct
  54:Drivers/STM32G4xx_HAL_Driver/Inc/stm32g4xx_ll_ucpd.h **** {
  55:Drivers/STM32G4xx_HAL_Driver/Inc/stm32g4xx_ll_ucpd.h ****   uint32_t psc_ucpdclk;         /*!< Specify the prescaler for the UCPD clock.
  56:Drivers/STM32G4xx_HAL_Driver/Inc/stm32g4xx_ll_ucpd.h ****                                      This parameter can be a value of @ref UCPD_LL_EC_PSC.
  57:Drivers/STM32G4xx_HAL_Driver/Inc/stm32g4xx_ll_ucpd.h ****                                      This feature can be modified afterwards using function @ref LL
  58:Drivers/STM32G4xx_HAL_Driver/Inc/stm32g4xx_ll_ucpd.h ****                                 */
  59:Drivers/STM32G4xx_HAL_Driver/Inc/stm32g4xx_ll_ucpd.h **** 
  60:Drivers/STM32G4xx_HAL_Driver/Inc/stm32g4xx_ll_ucpd.h ****   uint32_t transwin;            /*!< Specify the number of cycles (minus 1) of the half bit clock (
  61:Drivers/STM32G4xx_HAL_Driver/Inc/stm32g4xx_ll_ucpd.h ****                                    to achieve a legal tTransitionWindow (set according to periphera
  62:Drivers/STM32G4xx_HAL_Driver/Inc/stm32g4xx_ll_ucpd.h ****                                     an interval of between 12 and 20 us).
  63:Drivers/STM32G4xx_HAL_Driver/Inc/stm32g4xx_ll_ucpd.h ****                                     This parameter can be a value between Min_Data=0x1 and Max_Data
  64:Drivers/STM32G4xx_HAL_Driver/Inc/stm32g4xx_ll_ucpd.h ****                                     This value can be modified afterwards using function @ref LL_UC
  65:Drivers/STM32G4xx_HAL_Driver/Inc/stm32g4xx_ll_ucpd.h ****                                 */
  66:Drivers/STM32G4xx_HAL_Driver/Inc/stm32g4xx_ll_ucpd.h **** 
  67:Drivers/STM32G4xx_HAL_Driver/Inc/stm32g4xx_ll_ucpd.h ****   uint32_t IfrGap;              /*!< Specify the definition of the clock divider (minus 1) in order
  68:Drivers/STM32G4xx_HAL_Driver/Inc/stm32g4xx_ll_ucpd.h ****                                     tInterframeGap from the peripheral clock.
  69:Drivers/STM32G4xx_HAL_Driver/Inc/stm32g4xx_ll_ucpd.h ****                                     This parameter can be a value between Min_Data=0x1 and Max_Data
  70:Drivers/STM32G4xx_HAL_Driver/Inc/stm32g4xx_ll_ucpd.h ****                                     This feature can be modified afterwards using function @ref LL_
  71:Drivers/STM32G4xx_HAL_Driver/Inc/stm32g4xx_ll_ucpd.h ****                                 */
  72:Drivers/STM32G4xx_HAL_Driver/Inc/stm32g4xx_ll_ucpd.h **** 
  73:Drivers/STM32G4xx_HAL_Driver/Inc/stm32g4xx_ll_ucpd.h ****   uint32_t HbitClockDiv;        /*!< Specify the number of cycles (minus one) at UCPD peripheral fo
  74:Drivers/STM32G4xx_HAL_Driver/Inc/stm32g4xx_ll_ucpd.h ****                                      e.g. program 3 for a bit clock that takes 8 cycles of the peri
  75:Drivers/STM32G4xx_HAL_Driver/Inc/stm32g4xx_ll_ucpd.h ****                                      "UCPD1_CLK".
  76:Drivers/STM32G4xx_HAL_Driver/Inc/stm32g4xx_ll_ucpd.h ****                                      This parameter can be a value between Min_Data=0x0 and Max_Dat
  77:Drivers/STM32G4xx_HAL_Driver/Inc/stm32g4xx_ll_ucpd.h ****                                      This feature can be modified using function @ref LL_UCPD_SetHb
  78:Drivers/STM32G4xx_HAL_Driver/Inc/stm32g4xx_ll_ucpd.h ****                                 */
  79:Drivers/STM32G4xx_HAL_Driver/Inc/stm32g4xx_ll_ucpd.h **** 
  80:Drivers/STM32G4xx_HAL_Driver/Inc/stm32g4xx_ll_ucpd.h **** } LL_UCPD_InitTypeDef;
  81:Drivers/STM32G4xx_HAL_Driver/Inc/stm32g4xx_ll_ucpd.h **** 
  82:Drivers/STM32G4xx_HAL_Driver/Inc/stm32g4xx_ll_ucpd.h **** /**
  83:Drivers/STM32G4xx_HAL_Driver/Inc/stm32g4xx_ll_ucpd.h ****   * @}
  84:Drivers/STM32G4xx_HAL_Driver/Inc/stm32g4xx_ll_ucpd.h ****   */
  85:Drivers/STM32G4xx_HAL_Driver/Inc/stm32g4xx_ll_ucpd.h **** #endif /* USE_FULL_LL_DRIVER */
  86:Drivers/STM32G4xx_HAL_Driver/Inc/stm32g4xx_ll_ucpd.h **** 
  87:Drivers/STM32G4xx_HAL_Driver/Inc/stm32g4xx_ll_ucpd.h **** /* Exported constants --------------------------------------------------------*/
  88:Drivers/STM32G4xx_HAL_Driver/Inc/stm32g4xx_ll_ucpd.h **** /** @defgroup UCPD_LL_Exported_Constants UCPD Exported Constants
  89:Drivers/STM32G4xx_HAL_Driver/Inc/stm32g4xx_ll_ucpd.h ****   * @{
  90:Drivers/STM32G4xx_HAL_Driver/Inc/stm32g4xx_ll_ucpd.h ****   */
  91:Drivers/STM32G4xx_HAL_Driver/Inc/stm32g4xx_ll_ucpd.h **** 
  92:Drivers/STM32G4xx_HAL_Driver/Inc/stm32g4xx_ll_ucpd.h **** /** @defgroup UCPD_LL_EC_GET_FLAG Get Flags Defines
  93:Drivers/STM32G4xx_HAL_Driver/Inc/stm32g4xx_ll_ucpd.h ****   * @brief    Flags defines which can be used with LL_ucpd_ReadReg function
  94:Drivers/STM32G4xx_HAL_Driver/Inc/stm32g4xx_ll_ucpd.h ****   * @{
  95:Drivers/STM32G4xx_HAL_Driver/Inc/stm32g4xx_ll_ucpd.h ****   */
  96:Drivers/STM32G4xx_HAL_Driver/Inc/stm32g4xx_ll_ucpd.h **** #define LL_UCPD_SR_TXIS             UCPD_SR_TXIS                  /*!< Transmit interrupt status   
  97:Drivers/STM32G4xx_HAL_Driver/Inc/stm32g4xx_ll_ucpd.h **** #define LL_UCPD_SR_TXMSGDISC        UCPD_SR_TXMSGDISC             /*!< Transmit message discarded i
  98:Drivers/STM32G4xx_HAL_Driver/Inc/stm32g4xx_ll_ucpd.h **** #define LL_UCPD_SR_TXMSGSENT        UCPD_SR_TXMSGSENT             /*!< Transmit message sent interr
  99:Drivers/STM32G4xx_HAL_Driver/Inc/stm32g4xx_ll_ucpd.h **** #define LL_UCPD_SR_TXMSGABT         UCPD_SR_TXMSGABT              /*!< Transmit message abort inter
 100:Drivers/STM32G4xx_HAL_Driver/Inc/stm32g4xx_ll_ucpd.h **** #define LL_UCPD_SR_HRSTDISC         UCPD_SR_HRSTDISC              /*!< HRST discarded interrupt    
 101:Drivers/STM32G4xx_HAL_Driver/Inc/stm32g4xx_ll_ucpd.h **** #define LL_UCPD_SR_HRSTSENT         UCPD_SR_HRSTSENT              /*!< HRST sent interrupt         
 102:Drivers/STM32G4xx_HAL_Driver/Inc/stm32g4xx_ll_ucpd.h **** #define LL_UCPD_SR_TXUND            UCPD_SR_TXUND                 /*!< Tx data underrun condition i
 103:Drivers/STM32G4xx_HAL_Driver/Inc/stm32g4xx_ll_ucpd.h **** #define LL_UCPD_SR_RXNE             UCPD_SR_RXNE                  /*!< Receive data register not em
 104:Drivers/STM32G4xx_HAL_Driver/Inc/stm32g4xx_ll_ucpd.h **** #define LL_UCPD_SR_RXORDDET         UCPD_SR_RXORDDET              /*!< Rx ordered set (4 K-codes) d
 105:Drivers/STM32G4xx_HAL_Driver/Inc/stm32g4xx_ll_ucpd.h **** #define LL_UCPD_SR_RXHRSTDET        UCPD_SR_RXHRSTDET             /*!< Rx Hard Reset detect interru
 106:Drivers/STM32G4xx_HAL_Driver/Inc/stm32g4xx_ll_ucpd.h **** #define LL_UCPD_SR_RXOVR            UCPD_SR_RXOVR                 /*!< Rx data overflow interrupt  
 107:Drivers/STM32G4xx_HAL_Driver/Inc/stm32g4xx_ll_ucpd.h **** #define LL_UCPD_SR_RXMSGEND         UCPD_SR_RXMSGEND              /*!< Rx message received         
ARM GAS  /var/folders/kd/c99kx6qx51n19rszfxl6vhn80000gp/T//ccdYvVMp.s 			page 8


 108:Drivers/STM32G4xx_HAL_Driver/Inc/stm32g4xx_ll_ucpd.h **** #define LL_UCPD_SR_RXERR            UCPD_SR_RXERR                 /*!< Rx error                    
 109:Drivers/STM32G4xx_HAL_Driver/Inc/stm32g4xx_ll_ucpd.h **** #define LL_UCPD_SR_TYPECEVT1        UCPD_SR_TYPECEVT1             /*!< Type C voltage level event o
 110:Drivers/STM32G4xx_HAL_Driver/Inc/stm32g4xx_ll_ucpd.h **** #define LL_UCPD_SR_TYPECEVT2        UCPD_SR_TYPECEVT2             /*!< Type C voltage level event o
 111:Drivers/STM32G4xx_HAL_Driver/Inc/stm32g4xx_ll_ucpd.h **** #define LL_UCPD_SR_TYPEC_VSTATE_CC1 UCPD_SR_TYPEC_VSTATE_CC1      /*!<Status of DC level on CC1 pin
 112:Drivers/STM32G4xx_HAL_Driver/Inc/stm32g4xx_ll_ucpd.h **** #define LL_UCPD_SR_TYPEC_VSTATE_CC2 UCPD_SR_TYPEC_VSTATE_CC2      /*!<Status of DC level on CC2 pin
 113:Drivers/STM32G4xx_HAL_Driver/Inc/stm32g4xx_ll_ucpd.h **** #define LL_UCPD_SR_FRSEVT           UCPD_SR_FRSEVT                /*!<Fast Role Swap detection even
 114:Drivers/STM32G4xx_HAL_Driver/Inc/stm32g4xx_ll_ucpd.h **** 
 115:Drivers/STM32G4xx_HAL_Driver/Inc/stm32g4xx_ll_ucpd.h **** /**
 116:Drivers/STM32G4xx_HAL_Driver/Inc/stm32g4xx_ll_ucpd.h ****   * @}
 117:Drivers/STM32G4xx_HAL_Driver/Inc/stm32g4xx_ll_ucpd.h ****   */
 118:Drivers/STM32G4xx_HAL_Driver/Inc/stm32g4xx_ll_ucpd.h **** 
 119:Drivers/STM32G4xx_HAL_Driver/Inc/stm32g4xx_ll_ucpd.h **** /** @defgroup UCPD_LL_EC_IT IT Defines
 120:Drivers/STM32G4xx_HAL_Driver/Inc/stm32g4xx_ll_ucpd.h ****   * @brief    IT defines which can be used with LL_UCPD_ReadReg and  LL_UCPD_WriteReg functions
 121:Drivers/STM32G4xx_HAL_Driver/Inc/stm32g4xx_ll_ucpd.h ****   * @{
 122:Drivers/STM32G4xx_HAL_Driver/Inc/stm32g4xx_ll_ucpd.h ****   */
 123:Drivers/STM32G4xx_HAL_Driver/Inc/stm32g4xx_ll_ucpd.h **** #define LL_UCPD_IMR_TXIS             UCPD_IMR_TXISIE              /*!< Enable transmit interrupt st
 124:Drivers/STM32G4xx_HAL_Driver/Inc/stm32g4xx_ll_ucpd.h **** #define LL_UCPD_IMR_TXMSGDISC        UCPD_IMR_TXMSGDISCIE         /*!< Enable transmit message disc
 125:Drivers/STM32G4xx_HAL_Driver/Inc/stm32g4xx_ll_ucpd.h **** #define LL_UCPD_IMR_TXMSGSENT        UCPD_IMR_TXMSGSENTIE         /*!< Enable transmit message sent
 126:Drivers/STM32G4xx_HAL_Driver/Inc/stm32g4xx_ll_ucpd.h **** #define LL_UCPD_IMR_TXMSGABT         UCPD_IMR_TXMSGABTIE          /*!< Enable transmit message abor
 127:Drivers/STM32G4xx_HAL_Driver/Inc/stm32g4xx_ll_ucpd.h **** #define LL_UCPD_IMR_HRSTDISC         UCPD_IMR_HRSTDISCIE          /*!< Enable HRST discarded interr
 128:Drivers/STM32G4xx_HAL_Driver/Inc/stm32g4xx_ll_ucpd.h **** #define LL_UCPD_IMR_HRSTSENT         UCPD_IMR_HRSTSENTIE          /*!< Enable HRST sent interrupt  
 129:Drivers/STM32G4xx_HAL_Driver/Inc/stm32g4xx_ll_ucpd.h **** #define LL_UCPD_IMR_TXUND            UCPD_IMR_TXUNDIE             /*!< Enable tx data underrun cond
 130:Drivers/STM32G4xx_HAL_Driver/Inc/stm32g4xx_ll_ucpd.h **** #define LL_UCPD_IMR_RXNE             UCPD_IMR_RXNEIE              /*!< Enable Receive data register
 131:Drivers/STM32G4xx_HAL_Driver/Inc/stm32g4xx_ll_ucpd.h **** #define LL_UCPD_IMR_RXORDDET         UCPD_IMR_RXORDDETIE          /*!< Enable Rx ordered set (4 K-c
 132:Drivers/STM32G4xx_HAL_Driver/Inc/stm32g4xx_ll_ucpd.h **** #define LL_UCPD_IMR_RXHRSTDET        UCPD_IMR_RXHRSTDETIE         /*!< Enable Rx Hard Reset detect 
 133:Drivers/STM32G4xx_HAL_Driver/Inc/stm32g4xx_ll_ucpd.h **** #define LL_UCPD_IMR_RXOVR            UCPD_IMR_RXOVRIE             /*!< Enable Rx data overflow inte
 134:Drivers/STM32G4xx_HAL_Driver/Inc/stm32g4xx_ll_ucpd.h **** #define LL_UCPD_IMR_RXMSGEND         UCPD_IMR_RXMSGENDIE          /*!< Enable Rx message received  
 135:Drivers/STM32G4xx_HAL_Driver/Inc/stm32g4xx_ll_ucpd.h **** #define LL_UCPD_IMR_TYPECEVT1        UCPD_IMR_TYPECEVT1IE         /*!< Enable Type C voltage level 
 136:Drivers/STM32G4xx_HAL_Driver/Inc/stm32g4xx_ll_ucpd.h **** #define LL_UCPD_IMR_TYPECEVT2        UCPD_IMR_TYPECEVT2IE         /*!< Enable Type C voltage level 
 137:Drivers/STM32G4xx_HAL_Driver/Inc/stm32g4xx_ll_ucpd.h **** #define LL_UCPD_IMR_FRSEVT           UCPD_IMR_FRSEVTIE            /*!< Enable fast Role Swap detect
 138:Drivers/STM32G4xx_HAL_Driver/Inc/stm32g4xx_ll_ucpd.h **** 
 139:Drivers/STM32G4xx_HAL_Driver/Inc/stm32g4xx_ll_ucpd.h **** /**
 140:Drivers/STM32G4xx_HAL_Driver/Inc/stm32g4xx_ll_ucpd.h ****   * @}
 141:Drivers/STM32G4xx_HAL_Driver/Inc/stm32g4xx_ll_ucpd.h ****   */
 142:Drivers/STM32G4xx_HAL_Driver/Inc/stm32g4xx_ll_ucpd.h **** 
 143:Drivers/STM32G4xx_HAL_Driver/Inc/stm32g4xx_ll_ucpd.h **** /** @defgroup UCPD_LL_EC_ORDERSET Ordered sets value
 144:Drivers/STM32G4xx_HAL_Driver/Inc/stm32g4xx_ll_ucpd.h ****   * @brief    definition of the usual Ordered sets
 145:Drivers/STM32G4xx_HAL_Driver/Inc/stm32g4xx_ll_ucpd.h ****   * @{
 146:Drivers/STM32G4xx_HAL_Driver/Inc/stm32g4xx_ll_ucpd.h ****   */
 147:Drivers/STM32G4xx_HAL_Driver/Inc/stm32g4xx_ll_ucpd.h **** #define LL_UCPD_SYNC1 0x18u                                       /*!< K-code for Startsynch #1    
 148:Drivers/STM32G4xx_HAL_Driver/Inc/stm32g4xx_ll_ucpd.h **** #define LL_UCPD_SYNC2 0x11u                                       /*!< K-code for Startsynch #2    
 149:Drivers/STM32G4xx_HAL_Driver/Inc/stm32g4xx_ll_ucpd.h **** #define LL_UCPD_SYNC3 0x06u                                       /*!< K-code for Startsynch #3    
 150:Drivers/STM32G4xx_HAL_Driver/Inc/stm32g4xx_ll_ucpd.h **** #define LL_UCPD_RST1  0x07u                                       /*!< K-code for Hard Reset #1    
 151:Drivers/STM32G4xx_HAL_Driver/Inc/stm32g4xx_ll_ucpd.h **** #define LL_UCPD_RST2  0x19u                                       /*!< K-code for Hard Reset #2    
 152:Drivers/STM32G4xx_HAL_Driver/Inc/stm32g4xx_ll_ucpd.h **** #define LL_UCPD_EOP   0x0Du                                       /*!< K-code for EOP End of Packet
 153:Drivers/STM32G4xx_HAL_Driver/Inc/stm32g4xx_ll_ucpd.h **** 
 154:Drivers/STM32G4xx_HAL_Driver/Inc/stm32g4xx_ll_ucpd.h **** #define LL_UCPD_ORDERED_SET_SOP         (LL_UCPD_SYNC1 | (LL_UCPD_SYNC1<<5u) | (LL_UCPD_SYNC1<<10u)
 155:Drivers/STM32G4xx_HAL_Driver/Inc/stm32g4xx_ll_ucpd.h **** #define LL_UCPD_ORDERED_SET_SOP1        (LL_UCPD_SYNC1 | (LL_UCPD_SYNC1<<5u) | (LL_UCPD_SYNC3<<10u)
 156:Drivers/STM32G4xx_HAL_Driver/Inc/stm32g4xx_ll_ucpd.h **** #define LL_UCPD_ORDERED_SET_SOP2        (LL_UCPD_SYNC1 | (LL_UCPD_SYNC3<<5u) | (LL_UCPD_SYNC1<<10u)
 157:Drivers/STM32G4xx_HAL_Driver/Inc/stm32g4xx_ll_ucpd.h **** #define LL_UCPD_ORDERED_SET_HARD_RESET  (LL_UCPD_RST1  | (LL_UCPD_RST1<<5u)  | (LL_UCPD_RST1<<10u) 
 158:Drivers/STM32G4xx_HAL_Driver/Inc/stm32g4xx_ll_ucpd.h **** #define LL_UCPD_ORDERED_SET_CABLE_RESET (LL_UCPD_RST1  | (LL_UCPD_SYNC1<<5u) | (LL_UCPD_RST1<<10u) 
 159:Drivers/STM32G4xx_HAL_Driver/Inc/stm32g4xx_ll_ucpd.h **** #define LL_UCPD_ORDERED_SET_SOP1_DEBUG  (LL_UCPD_SYNC1 | (LL_UCPD_RST2<<5u)  | (LL_UCPD_RST2<<10u) 
 160:Drivers/STM32G4xx_HAL_Driver/Inc/stm32g4xx_ll_ucpd.h **** #define LL_UCPD_ORDERED_SET_SOP2_DEBUG  (LL_UCPD_SYNC1 | (LL_UCPD_RST2<<5u)  | (LL_UCPD_SYNC3<<10u)
 161:Drivers/STM32G4xx_HAL_Driver/Inc/stm32g4xx_ll_ucpd.h **** /**
 162:Drivers/STM32G4xx_HAL_Driver/Inc/stm32g4xx_ll_ucpd.h ****   * @}
 163:Drivers/STM32G4xx_HAL_Driver/Inc/stm32g4xx_ll_ucpd.h ****   */
 164:Drivers/STM32G4xx_HAL_Driver/Inc/stm32g4xx_ll_ucpd.h **** 
ARM GAS  /var/folders/kd/c99kx6qx51n19rszfxl6vhn80000gp/T//ccdYvVMp.s 			page 9


 165:Drivers/STM32G4xx_HAL_Driver/Inc/stm32g4xx_ll_ucpd.h **** /** @defgroup UCPD_LL_EC_MODE Role Mode
 166:Drivers/STM32G4xx_HAL_Driver/Inc/stm32g4xx_ll_ucpd.h ****   * @{
 167:Drivers/STM32G4xx_HAL_Driver/Inc/stm32g4xx_ll_ucpd.h ****   */
 168:Drivers/STM32G4xx_HAL_Driver/Inc/stm32g4xx_ll_ucpd.h **** #define LL_UCPD_ROLE_SNK             UCPD_CR_ANAMODE              /*!< Mode SNK Rd                 
 169:Drivers/STM32G4xx_HAL_Driver/Inc/stm32g4xx_ll_ucpd.h **** #define LL_UCPD_ROLE_SRC             0x0U                         /*!< Mode SRC Rp                 
 170:Drivers/STM32G4xx_HAL_Driver/Inc/stm32g4xx_ll_ucpd.h **** /**
 171:Drivers/STM32G4xx_HAL_Driver/Inc/stm32g4xx_ll_ucpd.h ****   * @}
 172:Drivers/STM32G4xx_HAL_Driver/Inc/stm32g4xx_ll_ucpd.h ****   */
 173:Drivers/STM32G4xx_HAL_Driver/Inc/stm32g4xx_ll_ucpd.h **** 
 174:Drivers/STM32G4xx_HAL_Driver/Inc/stm32g4xx_ll_ucpd.h **** /** @defgroup UCPD_LL_EC_RESISTOR Resistor value
 175:Drivers/STM32G4xx_HAL_Driver/Inc/stm32g4xx_ll_ucpd.h ****   * @{
 176:Drivers/STM32G4xx_HAL_Driver/Inc/stm32g4xx_ll_ucpd.h ****   */
 177:Drivers/STM32G4xx_HAL_Driver/Inc/stm32g4xx_ll_ucpd.h **** #define LL_UCPD_RESISTOR_DEFAULT    UCPD_CR_ANASUBMODE_0          /*!< Rp default                  
 178:Drivers/STM32G4xx_HAL_Driver/Inc/stm32g4xx_ll_ucpd.h **** #define LL_UCPD_RESISTOR_1_5A       UCPD_CR_ANASUBMODE_1          /*!< Rp 1.5 A                    
 179:Drivers/STM32G4xx_HAL_Driver/Inc/stm32g4xx_ll_ucpd.h **** #define LL_UCPD_RESISTOR_3_0A       UCPD_CR_ANASUBMODE            /*!< Rp 3.0 A                    
 180:Drivers/STM32G4xx_HAL_Driver/Inc/stm32g4xx_ll_ucpd.h **** #define LL_UCPD_RESISTOR_NONE       0x0U                          /*!< No resistor                 
 181:Drivers/STM32G4xx_HAL_Driver/Inc/stm32g4xx_ll_ucpd.h **** /**
 182:Drivers/STM32G4xx_HAL_Driver/Inc/stm32g4xx_ll_ucpd.h ****   * @}
 183:Drivers/STM32G4xx_HAL_Driver/Inc/stm32g4xx_ll_ucpd.h ****   */
 184:Drivers/STM32G4xx_HAL_Driver/Inc/stm32g4xx_ll_ucpd.h **** 
 185:Drivers/STM32G4xx_HAL_Driver/Inc/stm32g4xx_ll_ucpd.h **** /** @defgroup UCPD_LL_EC_CFG1_ORDERSET ordered set configuration
 186:Drivers/STM32G4xx_HAL_Driver/Inc/stm32g4xx_ll_ucpd.h ****   * @{
 187:Drivers/STM32G4xx_HAL_Driver/Inc/stm32g4xx_ll_ucpd.h ****   */
 188:Drivers/STM32G4xx_HAL_Driver/Inc/stm32g4xx_ll_ucpd.h **** #define LL_UCPD_ORDERSET_SOP         UCPD_CFG1_RXORDSETEN_0       /*!< SOP Ordered set detection en
 189:Drivers/STM32G4xx_HAL_Driver/Inc/stm32g4xx_ll_ucpd.h **** #define LL_UCPD_ORDERSET_SOP1        UCPD_CFG1_RXORDSETEN_1       /*!< SOP' Ordered set detection e
 190:Drivers/STM32G4xx_HAL_Driver/Inc/stm32g4xx_ll_ucpd.h **** #define LL_UCPD_ORDERSET_SOP2        UCPD_CFG1_RXORDSETEN_2       /*!< SOP'' Ordered set detection 
 191:Drivers/STM32G4xx_HAL_Driver/Inc/stm32g4xx_ll_ucpd.h **** #define LL_UCPD_ORDERSET_HARDRST     UCPD_CFG1_RXORDSETEN_3       /*!< Hard Reset Ordered set detec
 192:Drivers/STM32G4xx_HAL_Driver/Inc/stm32g4xx_ll_ucpd.h **** #define LL_UCPD_ORDERSET_CABLERST    UCPD_CFG1_RXORDSETEN_4       /*!< Cable Reset Ordered set dete
 193:Drivers/STM32G4xx_HAL_Driver/Inc/stm32g4xx_ll_ucpd.h **** #define LL_UCPD_ORDERSET_SOP1_DEBUG  UCPD_CFG1_RXORDSETEN_5       /*!< SOP' Debug Ordered set detec
 194:Drivers/STM32G4xx_HAL_Driver/Inc/stm32g4xx_ll_ucpd.h **** #define LL_UCPD_ORDERSET_SOP2_DEBUG  UCPD_CFG1_RXORDSETEN_6       /*!< SOP'' Debug Ordered set dete
 195:Drivers/STM32G4xx_HAL_Driver/Inc/stm32g4xx_ll_ucpd.h **** #define LL_UCPD_ORDERSET_SOP_EXT1    UCPD_CFG1_RXORDSETEN_7       /*!< SOP extension#1 Ordered set 
 196:Drivers/STM32G4xx_HAL_Driver/Inc/stm32g4xx_ll_ucpd.h **** #define LL_UCPD_ORDERSET_SOP_EXT2    UCPD_CFG1_RXORDSETEN_8       /*!< SOP extension#2 Ordered set 
 197:Drivers/STM32G4xx_HAL_Driver/Inc/stm32g4xx_ll_ucpd.h **** /**
 198:Drivers/STM32G4xx_HAL_Driver/Inc/stm32g4xx_ll_ucpd.h ****   * @}
 199:Drivers/STM32G4xx_HAL_Driver/Inc/stm32g4xx_ll_ucpd.h ****   */
 200:Drivers/STM32G4xx_HAL_Driver/Inc/stm32g4xx_ll_ucpd.h **** 
 201:Drivers/STM32G4xx_HAL_Driver/Inc/stm32g4xx_ll_ucpd.h **** /** @defgroup UCPD_LL_EC_CCxEVT  CCx event
 202:Drivers/STM32G4xx_HAL_Driver/Inc/stm32g4xx_ll_ucpd.h ****   * @{
 203:Drivers/STM32G4xx_HAL_Driver/Inc/stm32g4xx_ll_ucpd.h ****   */
 204:Drivers/STM32G4xx_HAL_Driver/Inc/stm32g4xx_ll_ucpd.h **** #define LL_UCPD_SNK_CC1_VOPEN      0x00u                                                      /*!< 
 205:Drivers/STM32G4xx_HAL_Driver/Inc/stm32g4xx_ll_ucpd.h **** #define LL_UCPD_SNK_CC1_VRP        UCPD_SR_TYPEC_VSTATE_CC1_0                                 /*!< 
 206:Drivers/STM32G4xx_HAL_Driver/Inc/stm32g4xx_ll_ucpd.h **** #define LL_UCPD_SNK_CC1_VRP15A     UCPD_SR_TYPEC_VSTATE_CC1_1                                 /*!< 
 207:Drivers/STM32G4xx_HAL_Driver/Inc/stm32g4xx_ll_ucpd.h **** #define LL_UCPD_SNK_CC1_VRP30A     (UCPD_SR_TYPEC_VSTATE_CC1_0 | UCPD_SR_TYPEC_VSTATE_CC1_1)  /*!< 
 208:Drivers/STM32G4xx_HAL_Driver/Inc/stm32g4xx_ll_ucpd.h **** 
 209:Drivers/STM32G4xx_HAL_Driver/Inc/stm32g4xx_ll_ucpd.h **** #define LL_UCPD_SNK_CC2_VOPEN      0x00u                                                      /*!< 
 210:Drivers/STM32G4xx_HAL_Driver/Inc/stm32g4xx_ll_ucpd.h **** #define LL_UCPD_SNK_CC2_VRP        UCPD_SR_TYPEC_VSTATE_CC2_0                                 /*!< 
 211:Drivers/STM32G4xx_HAL_Driver/Inc/stm32g4xx_ll_ucpd.h **** #define LL_UCPD_SNK_CC2_VRP15A     UCPD_SR_TYPEC_VSTATE_CC2_1                                 /*!< 
 212:Drivers/STM32G4xx_HAL_Driver/Inc/stm32g4xx_ll_ucpd.h **** #define LL_UCPD_SNK_CC2_VRP30A     (UCPD_SR_TYPEC_VSTATE_CC2_0 | UCPD_SR_TYPEC_VSTATE_CC2_1)  /*!< 
 213:Drivers/STM32G4xx_HAL_Driver/Inc/stm32g4xx_ll_ucpd.h **** 
 214:Drivers/STM32G4xx_HAL_Driver/Inc/stm32g4xx_ll_ucpd.h **** #define LL_UCPD_SRC_CC1_VRA        0x0U                                                      /*!< C
 215:Drivers/STM32G4xx_HAL_Driver/Inc/stm32g4xx_ll_ucpd.h **** #define LL_UCPD_SRC_CC1_VRD        UCPD_SR_TYPEC_VSTATE_CC1_0                                /*!< C
 216:Drivers/STM32G4xx_HAL_Driver/Inc/stm32g4xx_ll_ucpd.h **** #define LL_UCPD_SRC_CC1_OPEN       UCPD_SR_TYPEC_VSTATE_CC1_1                                /*!< C
 217:Drivers/STM32G4xx_HAL_Driver/Inc/stm32g4xx_ll_ucpd.h **** 
 218:Drivers/STM32G4xx_HAL_Driver/Inc/stm32g4xx_ll_ucpd.h **** #define LL_UCPD_SRC_CC2_VRA        0x0U                                                      /*!< C
 219:Drivers/STM32G4xx_HAL_Driver/Inc/stm32g4xx_ll_ucpd.h **** #define LL_UCPD_SRC_CC2_VRD        UCPD_SR_TYPEC_VSTATE_CC2_0                                /*!< C
 220:Drivers/STM32G4xx_HAL_Driver/Inc/stm32g4xx_ll_ucpd.h **** #define LL_UCPD_SRC_CC2_OPEN       UCPD_SR_TYPEC_VSTATE_CC2_1                                /*!< C
 221:Drivers/STM32G4xx_HAL_Driver/Inc/stm32g4xx_ll_ucpd.h **** /**
ARM GAS  /var/folders/kd/c99kx6qx51n19rszfxl6vhn80000gp/T//ccdYvVMp.s 			page 10


 222:Drivers/STM32G4xx_HAL_Driver/Inc/stm32g4xx_ll_ucpd.h ****   * @}
 223:Drivers/STM32G4xx_HAL_Driver/Inc/stm32g4xx_ll_ucpd.h ****   */
 224:Drivers/STM32G4xx_HAL_Driver/Inc/stm32g4xx_ll_ucpd.h **** 
 225:Drivers/STM32G4xx_HAL_Driver/Inc/stm32g4xx_ll_ucpd.h **** /** @defgroup UCPD_LL_EC_PSC prescaler for UCPDCLK
 226:Drivers/STM32G4xx_HAL_Driver/Inc/stm32g4xx_ll_ucpd.h ****   * @{
 227:Drivers/STM32G4xx_HAL_Driver/Inc/stm32g4xx_ll_ucpd.h ****   */
 228:Drivers/STM32G4xx_HAL_Driver/Inc/stm32g4xx_ll_ucpd.h **** #define LL_UCPD_PSC_DIV1            0x0u                                                     /*!< B
 229:Drivers/STM32G4xx_HAL_Driver/Inc/stm32g4xx_ll_ucpd.h **** #define LL_UCPD_PSC_DIV2            UCPD_CFG1_PSC_UCPDCLK_0                                  /*!< P
 230:Drivers/STM32G4xx_HAL_Driver/Inc/stm32g4xx_ll_ucpd.h **** #define LL_UCPD_PSC_DIV4            UCPD_CFG1_PSC_UCPDCLK_1                                  /*!< P
 231:Drivers/STM32G4xx_HAL_Driver/Inc/stm32g4xx_ll_ucpd.h **** #define LL_UCPD_PSC_DIV8            (UCPD_CFG1_PSC_UCPDCLK_1 | UCPD_CFG1_PSC_UCPDCLK_0)      /*!< P
 232:Drivers/STM32G4xx_HAL_Driver/Inc/stm32g4xx_ll_ucpd.h **** #define LL_UCPD_PSC_DIV16           UCPD_CFG1_PSC_UCPDCLK_2                                  /*!< P
 233:Drivers/STM32G4xx_HAL_Driver/Inc/stm32g4xx_ll_ucpd.h **** /**
 234:Drivers/STM32G4xx_HAL_Driver/Inc/stm32g4xx_ll_ucpd.h ****   * @}
 235:Drivers/STM32G4xx_HAL_Driver/Inc/stm32g4xx_ll_ucpd.h ****   */
 236:Drivers/STM32G4xx_HAL_Driver/Inc/stm32g4xx_ll_ucpd.h **** 
 237:Drivers/STM32G4xx_HAL_Driver/Inc/stm32g4xx_ll_ucpd.h **** /** @defgroup UCPD_LL_EC_CCENABLE CC pin enable
 238:Drivers/STM32G4xx_HAL_Driver/Inc/stm32g4xx_ll_ucpd.h ****   * @{
 239:Drivers/STM32G4xx_HAL_Driver/Inc/stm32g4xx_ll_ucpd.h ****   */
 240:Drivers/STM32G4xx_HAL_Driver/Inc/stm32g4xx_ll_ucpd.h **** #define LL_UCPD_CCENABLE_NONE       0x0U                                                     /*!< N
 241:Drivers/STM32G4xx_HAL_Driver/Inc/stm32g4xx_ll_ucpd.h **** #define LL_UCPD_CCENABLE_CC1        UCPD_CR_CCENABLE_0                                       /*!< C
 242:Drivers/STM32G4xx_HAL_Driver/Inc/stm32g4xx_ll_ucpd.h **** #define LL_UCPD_CCENABLE_CC2        UCPD_CR_CCENABLE_1                                       /*!< C
 243:Drivers/STM32G4xx_HAL_Driver/Inc/stm32g4xx_ll_ucpd.h **** #define LL_UCPD_CCENABLE_CC1CC2     (UCPD_CR_CCENABLE_0 | UCPD_CR_CCENABLE_1)                /*!< C
 244:Drivers/STM32G4xx_HAL_Driver/Inc/stm32g4xx_ll_ucpd.h **** /**
 245:Drivers/STM32G4xx_HAL_Driver/Inc/stm32g4xx_ll_ucpd.h ****   * @}
 246:Drivers/STM32G4xx_HAL_Driver/Inc/stm32g4xx_ll_ucpd.h ****   */
 247:Drivers/STM32G4xx_HAL_Driver/Inc/stm32g4xx_ll_ucpd.h **** 
 248:Drivers/STM32G4xx_HAL_Driver/Inc/stm32g4xx_ll_ucpd.h **** /** @defgroup UCPD_LL_EC_CCPIN CC pin selection
 249:Drivers/STM32G4xx_HAL_Driver/Inc/stm32g4xx_ll_ucpd.h ****   * @{
 250:Drivers/STM32G4xx_HAL_Driver/Inc/stm32g4xx_ll_ucpd.h ****   */
 251:Drivers/STM32G4xx_HAL_Driver/Inc/stm32g4xx_ll_ucpd.h **** #define LL_UCPD_CCPIN_CC1           0x0U                    /*!< Use CC1 IO for power delivery comm
 252:Drivers/STM32G4xx_HAL_Driver/Inc/stm32g4xx_ll_ucpd.h **** #define LL_UCPD_CCPIN_CC2           UCPD_CR_PHYCCSEL        /*!< Use CC2 IO for power delivery comm
 253:Drivers/STM32G4xx_HAL_Driver/Inc/stm32g4xx_ll_ucpd.h **** /**
 254:Drivers/STM32G4xx_HAL_Driver/Inc/stm32g4xx_ll_ucpd.h ****   * @}
 255:Drivers/STM32G4xx_HAL_Driver/Inc/stm32g4xx_ll_ucpd.h ****   */
 256:Drivers/STM32G4xx_HAL_Driver/Inc/stm32g4xx_ll_ucpd.h **** 
 257:Drivers/STM32G4xx_HAL_Driver/Inc/stm32g4xx_ll_ucpd.h **** /** @defgroup UCPD_LL_EC_RXMODE Receiver mode
 258:Drivers/STM32G4xx_HAL_Driver/Inc/stm32g4xx_ll_ucpd.h ****   * @{
 259:Drivers/STM32G4xx_HAL_Driver/Inc/stm32g4xx_ll_ucpd.h ****   */
 260:Drivers/STM32G4xx_HAL_Driver/Inc/stm32g4xx_ll_ucpd.h **** #define LL_UCPD_RXMODE_NORMAL           0x0U                /*!< Normal receive mode               
 261:Drivers/STM32G4xx_HAL_Driver/Inc/stm32g4xx_ll_ucpd.h **** #define LL_UCPD_RXMODE_BIST_TEST_DATA   UCPD_CR_RXMODE      /*!< BIST receive mode (BIST Test Data 
 262:Drivers/STM32G4xx_HAL_Driver/Inc/stm32g4xx_ll_ucpd.h **** /**
 263:Drivers/STM32G4xx_HAL_Driver/Inc/stm32g4xx_ll_ucpd.h ****   * @}
 264:Drivers/STM32G4xx_HAL_Driver/Inc/stm32g4xx_ll_ucpd.h ****   */
 265:Drivers/STM32G4xx_HAL_Driver/Inc/stm32g4xx_ll_ucpd.h **** 
 266:Drivers/STM32G4xx_HAL_Driver/Inc/stm32g4xx_ll_ucpd.h **** /** @defgroup UCPD_LL_EC_TXMODE Type of Tx packet
 267:Drivers/STM32G4xx_HAL_Driver/Inc/stm32g4xx_ll_ucpd.h ****   * @{
 268:Drivers/STM32G4xx_HAL_Driver/Inc/stm32g4xx_ll_ucpd.h ****   */
 269:Drivers/STM32G4xx_HAL_Driver/Inc/stm32g4xx_ll_ucpd.h **** #define LL_UCPD_TXMODE_NORMAL           0x0U                /*!< Initiate the transfer of a Tx mess
 270:Drivers/STM32G4xx_HAL_Driver/Inc/stm32g4xx_ll_ucpd.h **** #define LL_UCPD_TXMODE_CABLE_RESET      UCPD_CR_TXMODE_0    /*!< Trigger a the transfer of a Cable 
 271:Drivers/STM32G4xx_HAL_Driver/Inc/stm32g4xx_ll_ucpd.h **** #define LL_UCPD_TXMODE_BIST_CARRIER2    UCPD_CR_TXMODE_1    /*!< Trigger a BIST test sequence send 
 272:Drivers/STM32G4xx_HAL_Driver/Inc/stm32g4xx_ll_ucpd.h **** /**
 273:Drivers/STM32G4xx_HAL_Driver/Inc/stm32g4xx_ll_ucpd.h ****   * @}
 274:Drivers/STM32G4xx_HAL_Driver/Inc/stm32g4xx_ll_ucpd.h ****   */
 275:Drivers/STM32G4xx_HAL_Driver/Inc/stm32g4xx_ll_ucpd.h **** 
 276:Drivers/STM32G4xx_HAL_Driver/Inc/stm32g4xx_ll_ucpd.h **** /** @defgroup UCPD_LL_EC_RXORDSET Rx ordered set code detected
 277:Drivers/STM32G4xx_HAL_Driver/Inc/stm32g4xx_ll_ucpd.h ****   * @{
 278:Drivers/STM32G4xx_HAL_Driver/Inc/stm32g4xx_ll_ucpd.h ****   */
ARM GAS  /var/folders/kd/c99kx6qx51n19rszfxl6vhn80000gp/T//ccdYvVMp.s 			page 11


 279:Drivers/STM32G4xx_HAL_Driver/Inc/stm32g4xx_ll_ucpd.h **** #define LL_UCPD_RXORDSET_SOP             0x0U                                                      
 280:Drivers/STM32G4xx_HAL_Driver/Inc/stm32g4xx_ll_ucpd.h **** #define LL_UCPD_RXORDSET_SOP1            UCPD_RX_ORDSET_RXORDSET_0                                 
 281:Drivers/STM32G4xx_HAL_Driver/Inc/stm32g4xx_ll_ucpd.h **** #define LL_UCPD_RXORDSET_SOP2            UCPD_RX_ORDSET_RXORDSET_1                                 
 282:Drivers/STM32G4xx_HAL_Driver/Inc/stm32g4xx_ll_ucpd.h **** #define LL_UCPD_RXORDSET_SOP1_DEBUG      (UCPD_RX_ORDSET_RXORDSET_0 | UCPD_RX_ORDSET_RXORDSET_1)   
 283:Drivers/STM32G4xx_HAL_Driver/Inc/stm32g4xx_ll_ucpd.h **** #define LL_UCPD_RXORDSET_SOP2_DEBUG      UCPD_RX_ORDSET_RXORDSET_2                                 
 284:Drivers/STM32G4xx_HAL_Driver/Inc/stm32g4xx_ll_ucpd.h **** #define LL_UCPD_RXORDSET_CABLE_RESET     (UCPD_RX_ORDSET_RXORDSET_2 | UCPD_RX_ORDSET_RXORDSET_0)   
 285:Drivers/STM32G4xx_HAL_Driver/Inc/stm32g4xx_ll_ucpd.h **** #define LL_UCPD_RXORDSET_SOPEXT1         (UCPD_RX_ORDSET_RXORDSET_2 | UCPD_RX_ORDSET_RXORDSET_1)   
 286:Drivers/STM32G4xx_HAL_Driver/Inc/stm32g4xx_ll_ucpd.h **** #define LL_UCPD_RXORDSET_SOPEXT2         (UCPD_RX_ORDSET_RXORDSET_2 | UCPD_RX_ORDSET_RXORDSET_1 | U
 287:Drivers/STM32G4xx_HAL_Driver/Inc/stm32g4xx_ll_ucpd.h **** /**
 288:Drivers/STM32G4xx_HAL_Driver/Inc/stm32g4xx_ll_ucpd.h ****   * @}
 289:Drivers/STM32G4xx_HAL_Driver/Inc/stm32g4xx_ll_ucpd.h ****   */
 290:Drivers/STM32G4xx_HAL_Driver/Inc/stm32g4xx_ll_ucpd.h **** 
 291:Drivers/STM32G4xx_HAL_Driver/Inc/stm32g4xx_ll_ucpd.h **** /**
 292:Drivers/STM32G4xx_HAL_Driver/Inc/stm32g4xx_ll_ucpd.h ****   * @}
 293:Drivers/STM32G4xx_HAL_Driver/Inc/stm32g4xx_ll_ucpd.h ****   */
 294:Drivers/STM32G4xx_HAL_Driver/Inc/stm32g4xx_ll_ucpd.h **** 
 295:Drivers/STM32G4xx_HAL_Driver/Inc/stm32g4xx_ll_ucpd.h **** /* Exported macro ------------------------------------------------------------*/
 296:Drivers/STM32G4xx_HAL_Driver/Inc/stm32g4xx_ll_ucpd.h **** /** @defgroup UCPD_LL_Exported_Macros UCPD Exported Macros
 297:Drivers/STM32G4xx_HAL_Driver/Inc/stm32g4xx_ll_ucpd.h ****   * @{
 298:Drivers/STM32G4xx_HAL_Driver/Inc/stm32g4xx_ll_ucpd.h ****   */
 299:Drivers/STM32G4xx_HAL_Driver/Inc/stm32g4xx_ll_ucpd.h **** 
 300:Drivers/STM32G4xx_HAL_Driver/Inc/stm32g4xx_ll_ucpd.h **** /** @defgroup UCPD_LL_EM_WRITE_READ Common Write and read registers Macros
 301:Drivers/STM32G4xx_HAL_Driver/Inc/stm32g4xx_ll_ucpd.h ****   * @{
 302:Drivers/STM32G4xx_HAL_Driver/Inc/stm32g4xx_ll_ucpd.h ****   */
 303:Drivers/STM32G4xx_HAL_Driver/Inc/stm32g4xx_ll_ucpd.h **** 
 304:Drivers/STM32G4xx_HAL_Driver/Inc/stm32g4xx_ll_ucpd.h **** /**
 305:Drivers/STM32G4xx_HAL_Driver/Inc/stm32g4xx_ll_ucpd.h ****   * @brief  Write a value in UCPD register
 306:Drivers/STM32G4xx_HAL_Driver/Inc/stm32g4xx_ll_ucpd.h ****   * @param  __INSTANCE__ UCPD Instance
 307:Drivers/STM32G4xx_HAL_Driver/Inc/stm32g4xx_ll_ucpd.h ****   * @param  __REG__ Register to be written
 308:Drivers/STM32G4xx_HAL_Driver/Inc/stm32g4xx_ll_ucpd.h ****   * @param  __VALUE__ Value to be written in the register
 309:Drivers/STM32G4xx_HAL_Driver/Inc/stm32g4xx_ll_ucpd.h ****   * @retval None
 310:Drivers/STM32G4xx_HAL_Driver/Inc/stm32g4xx_ll_ucpd.h ****   */
 311:Drivers/STM32G4xx_HAL_Driver/Inc/stm32g4xx_ll_ucpd.h **** #define LL_UCPD_WriteReg(__INSTANCE__, __REG__, __VALUE__) WRITE_REG((__INSTANCE__)->__REG__, (__VA
 312:Drivers/STM32G4xx_HAL_Driver/Inc/stm32g4xx_ll_ucpd.h **** 
 313:Drivers/STM32G4xx_HAL_Driver/Inc/stm32g4xx_ll_ucpd.h **** /**
 314:Drivers/STM32G4xx_HAL_Driver/Inc/stm32g4xx_ll_ucpd.h ****   * @brief  Read a value in UCPD register
 315:Drivers/STM32G4xx_HAL_Driver/Inc/stm32g4xx_ll_ucpd.h ****   * @param  __INSTANCE__ UCPD Instance
 316:Drivers/STM32G4xx_HAL_Driver/Inc/stm32g4xx_ll_ucpd.h ****   * @param  __REG__ Register to be read
 317:Drivers/STM32G4xx_HAL_Driver/Inc/stm32g4xx_ll_ucpd.h ****   * @retval Register value
 318:Drivers/STM32G4xx_HAL_Driver/Inc/stm32g4xx_ll_ucpd.h ****   */
 319:Drivers/STM32G4xx_HAL_Driver/Inc/stm32g4xx_ll_ucpd.h **** #define LL_UCPD_ReadReg(__INSTANCE__, __REG__) READ_REG((__INSTANCE__)->__REG__)
 320:Drivers/STM32G4xx_HAL_Driver/Inc/stm32g4xx_ll_ucpd.h **** /**
 321:Drivers/STM32G4xx_HAL_Driver/Inc/stm32g4xx_ll_ucpd.h ****   * @}
 322:Drivers/STM32G4xx_HAL_Driver/Inc/stm32g4xx_ll_ucpd.h ****   */
 323:Drivers/STM32G4xx_HAL_Driver/Inc/stm32g4xx_ll_ucpd.h **** 
 324:Drivers/STM32G4xx_HAL_Driver/Inc/stm32g4xx_ll_ucpd.h **** /**
 325:Drivers/STM32G4xx_HAL_Driver/Inc/stm32g4xx_ll_ucpd.h ****   * @}
 326:Drivers/STM32G4xx_HAL_Driver/Inc/stm32g4xx_ll_ucpd.h ****   */
 327:Drivers/STM32G4xx_HAL_Driver/Inc/stm32g4xx_ll_ucpd.h **** 
 328:Drivers/STM32G4xx_HAL_Driver/Inc/stm32g4xx_ll_ucpd.h **** /* Exported functions --------------------------------------------------------*/
 329:Drivers/STM32G4xx_HAL_Driver/Inc/stm32g4xx_ll_ucpd.h **** /** @defgroup UCPD_LL_Exported_Functions UCPD Exported Functions
 330:Drivers/STM32G4xx_HAL_Driver/Inc/stm32g4xx_ll_ucpd.h ****   * @{
 331:Drivers/STM32G4xx_HAL_Driver/Inc/stm32g4xx_ll_ucpd.h ****   */
 332:Drivers/STM32G4xx_HAL_Driver/Inc/stm32g4xx_ll_ucpd.h **** 
 333:Drivers/STM32G4xx_HAL_Driver/Inc/stm32g4xx_ll_ucpd.h **** /** @defgroup UCPD_LL_EF_Configuration Configuration
 334:Drivers/STM32G4xx_HAL_Driver/Inc/stm32g4xx_ll_ucpd.h ****   * @{
 335:Drivers/STM32G4xx_HAL_Driver/Inc/stm32g4xx_ll_ucpd.h ****   */
ARM GAS  /var/folders/kd/c99kx6qx51n19rszfxl6vhn80000gp/T//ccdYvVMp.s 			page 12


 336:Drivers/STM32G4xx_HAL_Driver/Inc/stm32g4xx_ll_ucpd.h **** 
 337:Drivers/STM32G4xx_HAL_Driver/Inc/stm32g4xx_ll_ucpd.h **** /** @defgroup UCPD_LL_EF_CFG1 CFG1 register
 338:Drivers/STM32G4xx_HAL_Driver/Inc/stm32g4xx_ll_ucpd.h ****   * @{
 339:Drivers/STM32G4xx_HAL_Driver/Inc/stm32g4xx_ll_ucpd.h ****   */
 340:Drivers/STM32G4xx_HAL_Driver/Inc/stm32g4xx_ll_ucpd.h **** /**
 341:Drivers/STM32G4xx_HAL_Driver/Inc/stm32g4xx_ll_ucpd.h ****   * @brief  Enable UCPD peripheral
 342:Drivers/STM32G4xx_HAL_Driver/Inc/stm32g4xx_ll_ucpd.h ****   * @rmtoll CFG1          UCPDEN           LL_UCPD_Enable
 343:Drivers/STM32G4xx_HAL_Driver/Inc/stm32g4xx_ll_ucpd.h ****   * @param  UCPDx UCPD Instance
 344:Drivers/STM32G4xx_HAL_Driver/Inc/stm32g4xx_ll_ucpd.h ****   * @retval None
 345:Drivers/STM32G4xx_HAL_Driver/Inc/stm32g4xx_ll_ucpd.h ****   */
 346:Drivers/STM32G4xx_HAL_Driver/Inc/stm32g4xx_ll_ucpd.h **** __STATIC_INLINE void LL_UCPD_Enable(UCPD_TypeDef *UCPDx)
 347:Drivers/STM32G4xx_HAL_Driver/Inc/stm32g4xx_ll_ucpd.h **** {
 348:Drivers/STM32G4xx_HAL_Driver/Inc/stm32g4xx_ll_ucpd.h ****   SET_BIT(UCPDx->CFG1, UCPD_CFG1_UCPDEN);
 349:Drivers/STM32G4xx_HAL_Driver/Inc/stm32g4xx_ll_ucpd.h **** }
 350:Drivers/STM32G4xx_HAL_Driver/Inc/stm32g4xx_ll_ucpd.h **** 
 351:Drivers/STM32G4xx_HAL_Driver/Inc/stm32g4xx_ll_ucpd.h **** /**
 352:Drivers/STM32G4xx_HAL_Driver/Inc/stm32g4xx_ll_ucpd.h ****   * @brief  Disable UCPD peripheral
 353:Drivers/STM32G4xx_HAL_Driver/Inc/stm32g4xx_ll_ucpd.h ****   * @note   When disabling the UCPD, follow the procedure described in the Reference Manual.
 354:Drivers/STM32G4xx_HAL_Driver/Inc/stm32g4xx_ll_ucpd.h ****   * @rmtoll CFG1          UCPDEN           LL_UCPD_Disable
 355:Drivers/STM32G4xx_HAL_Driver/Inc/stm32g4xx_ll_ucpd.h ****   * @param  UCPDx UCPD Instance
 356:Drivers/STM32G4xx_HAL_Driver/Inc/stm32g4xx_ll_ucpd.h ****   * @retval None
 357:Drivers/STM32G4xx_HAL_Driver/Inc/stm32g4xx_ll_ucpd.h ****   */
 358:Drivers/STM32G4xx_HAL_Driver/Inc/stm32g4xx_ll_ucpd.h **** __STATIC_INLINE void LL_UCPD_Disable(UCPD_TypeDef *UCPDx)
 359:Drivers/STM32G4xx_HAL_Driver/Inc/stm32g4xx_ll_ucpd.h **** {
 360:Drivers/STM32G4xx_HAL_Driver/Inc/stm32g4xx_ll_ucpd.h ****   CLEAR_BIT(UCPDx->CFG1, UCPD_CFG1_UCPDEN);
 361:Drivers/STM32G4xx_HAL_Driver/Inc/stm32g4xx_ll_ucpd.h **** }
 362:Drivers/STM32G4xx_HAL_Driver/Inc/stm32g4xx_ll_ucpd.h **** 
 363:Drivers/STM32G4xx_HAL_Driver/Inc/stm32g4xx_ll_ucpd.h **** /**
 364:Drivers/STM32G4xx_HAL_Driver/Inc/stm32g4xx_ll_ucpd.h ****   * @brief  Check if UCPD peripheral is enabled
 365:Drivers/STM32G4xx_HAL_Driver/Inc/stm32g4xx_ll_ucpd.h ****   * @rmtoll CFG1          UCPDEN           LL_UCPD_IsEnabled
 366:Drivers/STM32G4xx_HAL_Driver/Inc/stm32g4xx_ll_ucpd.h ****   * @param  UCPDx UCPD Instance
 367:Drivers/STM32G4xx_HAL_Driver/Inc/stm32g4xx_ll_ucpd.h ****   * @retval State of bit (1 or 0).
 368:Drivers/STM32G4xx_HAL_Driver/Inc/stm32g4xx_ll_ucpd.h ****   */
 369:Drivers/STM32G4xx_HAL_Driver/Inc/stm32g4xx_ll_ucpd.h **** __STATIC_INLINE uint32_t LL_UCPD_IsEnabled(UCPD_TypeDef const *const UCPDx)
 370:Drivers/STM32G4xx_HAL_Driver/Inc/stm32g4xx_ll_ucpd.h **** {
 371:Drivers/STM32G4xx_HAL_Driver/Inc/stm32g4xx_ll_ucpd.h ****   return ((READ_BIT(UCPDx->CFG1, UCPD_CFG1_UCPDEN) == (UCPD_CFG1_UCPDEN)) ? 1UL : 0UL);
 372:Drivers/STM32G4xx_HAL_Driver/Inc/stm32g4xx_ll_ucpd.h **** }
 373:Drivers/STM32G4xx_HAL_Driver/Inc/stm32g4xx_ll_ucpd.h **** 
 374:Drivers/STM32G4xx_HAL_Driver/Inc/stm32g4xx_ll_ucpd.h **** /**
 375:Drivers/STM32G4xx_HAL_Driver/Inc/stm32g4xx_ll_ucpd.h ****   * @brief  Set the receiver ordered set detection enable
 376:Drivers/STM32G4xx_HAL_Driver/Inc/stm32g4xx_ll_ucpd.h ****   * @rmtoll CFG1          RXORDSETEN          LL_UCPD_SetRxOrderSet
 377:Drivers/STM32G4xx_HAL_Driver/Inc/stm32g4xx_ll_ucpd.h ****   * @param  UCPDx UCPD Instance
 378:Drivers/STM32G4xx_HAL_Driver/Inc/stm32g4xx_ll_ucpd.h ****   * @param  OrderSet This parameter can be combination of the following values:
 379:Drivers/STM32G4xx_HAL_Driver/Inc/stm32g4xx_ll_ucpd.h ****   *         @arg @ref LL_UCPD_ORDERSET_SOP
 380:Drivers/STM32G4xx_HAL_Driver/Inc/stm32g4xx_ll_ucpd.h ****   *         @arg @ref LL_UCPD_ORDERSET_SOP1
 381:Drivers/STM32G4xx_HAL_Driver/Inc/stm32g4xx_ll_ucpd.h ****   *         @arg @ref LL_UCPD_ORDERSET_SOP2
 382:Drivers/STM32G4xx_HAL_Driver/Inc/stm32g4xx_ll_ucpd.h ****   *         @arg @ref LL_UCPD_ORDERSET_HARDRST
 383:Drivers/STM32G4xx_HAL_Driver/Inc/stm32g4xx_ll_ucpd.h ****   *         @arg @ref LL_UCPD_ORDERSET_CABLERST
 384:Drivers/STM32G4xx_HAL_Driver/Inc/stm32g4xx_ll_ucpd.h ****   *         @arg @ref LL_UCPD_ORDERSET_SOP1_DEBUG
 385:Drivers/STM32G4xx_HAL_Driver/Inc/stm32g4xx_ll_ucpd.h ****   *         @arg @ref LL_UCPD_ORDERSET_SOP2_DEBUG
 386:Drivers/STM32G4xx_HAL_Driver/Inc/stm32g4xx_ll_ucpd.h ****   *         @arg @ref LL_UCPD_ORDERSET_SOP_EXT1
 387:Drivers/STM32G4xx_HAL_Driver/Inc/stm32g4xx_ll_ucpd.h ****   *         @arg @ref LL_UCPD_ORDERSET_SOP_EXT2
 388:Drivers/STM32G4xx_HAL_Driver/Inc/stm32g4xx_ll_ucpd.h ****   * @retval None
 389:Drivers/STM32G4xx_HAL_Driver/Inc/stm32g4xx_ll_ucpd.h ****   */
 390:Drivers/STM32G4xx_HAL_Driver/Inc/stm32g4xx_ll_ucpd.h **** __STATIC_INLINE void LL_UCPD_SetRxOrderSet(UCPD_TypeDef *UCPDx, uint32_t OrderSet)
 391:Drivers/STM32G4xx_HAL_Driver/Inc/stm32g4xx_ll_ucpd.h **** {
 392:Drivers/STM32G4xx_HAL_Driver/Inc/stm32g4xx_ll_ucpd.h ****   MODIFY_REG(UCPDx->CFG1, UCPD_CFG1_RXORDSETEN, OrderSet);
ARM GAS  /var/folders/kd/c99kx6qx51n19rszfxl6vhn80000gp/T//ccdYvVMp.s 			page 13


 393:Drivers/STM32G4xx_HAL_Driver/Inc/stm32g4xx_ll_ucpd.h **** }
 394:Drivers/STM32G4xx_HAL_Driver/Inc/stm32g4xx_ll_ucpd.h **** 
 395:Drivers/STM32G4xx_HAL_Driver/Inc/stm32g4xx_ll_ucpd.h **** /**
 396:Drivers/STM32G4xx_HAL_Driver/Inc/stm32g4xx_ll_ucpd.h ****   * @brief  Set the prescaler for ucpd clock
 397:Drivers/STM32G4xx_HAL_Driver/Inc/stm32g4xx_ll_ucpd.h ****   * @rmtoll CFG1          UCPDCLK          LL_UCPD_SetPSCClk
 398:Drivers/STM32G4xx_HAL_Driver/Inc/stm32g4xx_ll_ucpd.h ****   * @param  UCPDx UCPD Instance
 399:Drivers/STM32G4xx_HAL_Driver/Inc/stm32g4xx_ll_ucpd.h ****   * @param  Psc This parameter can be one of the following values:
 400:Drivers/STM32G4xx_HAL_Driver/Inc/stm32g4xx_ll_ucpd.h ****   *         @arg @ref LL_UCPD_PSC_DIV1
 401:Drivers/STM32G4xx_HAL_Driver/Inc/stm32g4xx_ll_ucpd.h ****   *         @arg @ref LL_UCPD_PSC_DIV2
 402:Drivers/STM32G4xx_HAL_Driver/Inc/stm32g4xx_ll_ucpd.h ****   *         @arg @ref LL_UCPD_PSC_DIV4
 403:Drivers/STM32G4xx_HAL_Driver/Inc/stm32g4xx_ll_ucpd.h ****   *         @arg @ref LL_UCPD_PSC_DIV8
 404:Drivers/STM32G4xx_HAL_Driver/Inc/stm32g4xx_ll_ucpd.h ****   *         @arg @ref LL_UCPD_PSC_DIV16
 405:Drivers/STM32G4xx_HAL_Driver/Inc/stm32g4xx_ll_ucpd.h ****   * @retval None
 406:Drivers/STM32G4xx_HAL_Driver/Inc/stm32g4xx_ll_ucpd.h ****   */
 407:Drivers/STM32G4xx_HAL_Driver/Inc/stm32g4xx_ll_ucpd.h **** __STATIC_INLINE void LL_UCPD_SetPSCClk(UCPD_TypeDef *UCPDx, uint32_t Psc)
 408:Drivers/STM32G4xx_HAL_Driver/Inc/stm32g4xx_ll_ucpd.h **** {
 409:Drivers/STM32G4xx_HAL_Driver/Inc/stm32g4xx_ll_ucpd.h ****   MODIFY_REG(UCPDx->CFG1, UCPD_CFG1_PSC_UCPDCLK, Psc);
 410:Drivers/STM32G4xx_HAL_Driver/Inc/stm32g4xx_ll_ucpd.h **** }
 411:Drivers/STM32G4xx_HAL_Driver/Inc/stm32g4xx_ll_ucpd.h **** 
 412:Drivers/STM32G4xx_HAL_Driver/Inc/stm32g4xx_ll_ucpd.h **** /**
 413:Drivers/STM32G4xx_HAL_Driver/Inc/stm32g4xx_ll_ucpd.h ****   * @brief  Set the number of cycles (minus 1) of the half bit clock
 414:Drivers/STM32G4xx_HAL_Driver/Inc/stm32g4xx_ll_ucpd.h ****   * @rmtoll CFG1          TRANSWIN          LL_UCPD_SetTransWin
 415:Drivers/STM32G4xx_HAL_Driver/Inc/stm32g4xx_ll_ucpd.h ****   * @param  UCPDx UCPD Instance
 416:Drivers/STM32G4xx_HAL_Driver/Inc/stm32g4xx_ll_ucpd.h ****   * @param  TransWin a value between Min_Data=0x1 and Max_Data=0x1F
 417:Drivers/STM32G4xx_HAL_Driver/Inc/stm32g4xx_ll_ucpd.h ****   * @retval None
 418:Drivers/STM32G4xx_HAL_Driver/Inc/stm32g4xx_ll_ucpd.h ****   */
 419:Drivers/STM32G4xx_HAL_Driver/Inc/stm32g4xx_ll_ucpd.h **** __STATIC_INLINE void LL_UCPD_SetTransWin(UCPD_TypeDef *UCPDx, uint32_t TransWin)
 420:Drivers/STM32G4xx_HAL_Driver/Inc/stm32g4xx_ll_ucpd.h **** {
 421:Drivers/STM32G4xx_HAL_Driver/Inc/stm32g4xx_ll_ucpd.h ****   MODIFY_REG(UCPDx->CFG1, UCPD_CFG1_TRANSWIN, TransWin << UCPD_CFG1_TRANSWIN_Pos);
 422:Drivers/STM32G4xx_HAL_Driver/Inc/stm32g4xx_ll_ucpd.h **** }
 423:Drivers/STM32G4xx_HAL_Driver/Inc/stm32g4xx_ll_ucpd.h **** 
 424:Drivers/STM32G4xx_HAL_Driver/Inc/stm32g4xx_ll_ucpd.h **** /**
 425:Drivers/STM32G4xx_HAL_Driver/Inc/stm32g4xx_ll_ucpd.h ****   * @brief  Set the clock divider value to generate an interframe gap
 426:Drivers/STM32G4xx_HAL_Driver/Inc/stm32g4xx_ll_ucpd.h ****   * @rmtoll CFG1          IFRGAP          LL_UCPD_SetIfrGap
 427:Drivers/STM32G4xx_HAL_Driver/Inc/stm32g4xx_ll_ucpd.h ****   * @param  UCPDx UCPD Instance
 428:Drivers/STM32G4xx_HAL_Driver/Inc/stm32g4xx_ll_ucpd.h ****   * @param  IfrGap a value between Min_Data=0x1 and Max_Data=0x1F
 429:Drivers/STM32G4xx_HAL_Driver/Inc/stm32g4xx_ll_ucpd.h ****   * @retval None
 430:Drivers/STM32G4xx_HAL_Driver/Inc/stm32g4xx_ll_ucpd.h ****   */
 431:Drivers/STM32G4xx_HAL_Driver/Inc/stm32g4xx_ll_ucpd.h **** __STATIC_INLINE void LL_UCPD_SetIfrGap(UCPD_TypeDef *UCPDx, uint32_t IfrGap)
 432:Drivers/STM32G4xx_HAL_Driver/Inc/stm32g4xx_ll_ucpd.h **** {
 433:Drivers/STM32G4xx_HAL_Driver/Inc/stm32g4xx_ll_ucpd.h ****   MODIFY_REG(UCPDx->CFG1, UCPD_CFG1_IFRGAP, IfrGap << UCPD_CFG1_IFRGAP_Pos);
 434:Drivers/STM32G4xx_HAL_Driver/Inc/stm32g4xx_ll_ucpd.h **** }
 435:Drivers/STM32G4xx_HAL_Driver/Inc/stm32g4xx_ll_ucpd.h **** 
 436:Drivers/STM32G4xx_HAL_Driver/Inc/stm32g4xx_ll_ucpd.h **** /**
 437:Drivers/STM32G4xx_HAL_Driver/Inc/stm32g4xx_ll_ucpd.h ****   * @brief  Set the clock divider value to generate an interframe gap
 438:Drivers/STM32G4xx_HAL_Driver/Inc/stm32g4xx_ll_ucpd.h ****   * @rmtoll CFG1          HBITCLKDIV          LL_UCPD_SetHbitClockDiv
 439:Drivers/STM32G4xx_HAL_Driver/Inc/stm32g4xx_ll_ucpd.h ****   * @param  UCPDx UCPD Instance
 440:Drivers/STM32G4xx_HAL_Driver/Inc/stm32g4xx_ll_ucpd.h ****   * @param  HbitClock a value between Min_Data=0x0 and Max_Data=0x3F
 441:Drivers/STM32G4xx_HAL_Driver/Inc/stm32g4xx_ll_ucpd.h ****   * @retval None
 442:Drivers/STM32G4xx_HAL_Driver/Inc/stm32g4xx_ll_ucpd.h ****   */
 443:Drivers/STM32G4xx_HAL_Driver/Inc/stm32g4xx_ll_ucpd.h **** __STATIC_INLINE void LL_UCPD_SetHbitClockDiv(UCPD_TypeDef *UCPDx, uint32_t HbitClock)
 444:Drivers/STM32G4xx_HAL_Driver/Inc/stm32g4xx_ll_ucpd.h **** {
 445:Drivers/STM32G4xx_HAL_Driver/Inc/stm32g4xx_ll_ucpd.h ****   MODIFY_REG(UCPDx->CFG1, UCPD_CFG1_HBITCLKDIV, HbitClock << UCPD_CFG1_HBITCLKDIV_Pos);
 446:Drivers/STM32G4xx_HAL_Driver/Inc/stm32g4xx_ll_ucpd.h **** }
 447:Drivers/STM32G4xx_HAL_Driver/Inc/stm32g4xx_ll_ucpd.h **** 
 448:Drivers/STM32G4xx_HAL_Driver/Inc/stm32g4xx_ll_ucpd.h **** /**
 449:Drivers/STM32G4xx_HAL_Driver/Inc/stm32g4xx_ll_ucpd.h ****   * @}
ARM GAS  /var/folders/kd/c99kx6qx51n19rszfxl6vhn80000gp/T//ccdYvVMp.s 			page 14


 450:Drivers/STM32G4xx_HAL_Driver/Inc/stm32g4xx_ll_ucpd.h ****   */
 451:Drivers/STM32G4xx_HAL_Driver/Inc/stm32g4xx_ll_ucpd.h **** 
 452:Drivers/STM32G4xx_HAL_Driver/Inc/stm32g4xx_ll_ucpd.h **** /** @defgroup UCPD_LL_EF_CFG2 CFG2 register
 453:Drivers/STM32G4xx_HAL_Driver/Inc/stm32g4xx_ll_ucpd.h ****   * @{
 454:Drivers/STM32G4xx_HAL_Driver/Inc/stm32g4xx_ll_ucpd.h ****   */
 455:Drivers/STM32G4xx_HAL_Driver/Inc/stm32g4xx_ll_ucpd.h **** 
 456:Drivers/STM32G4xx_HAL_Driver/Inc/stm32g4xx_ll_ucpd.h **** /**
 457:Drivers/STM32G4xx_HAL_Driver/Inc/stm32g4xx_ll_ucpd.h ****   * @brief  Enable the wakeup mode
 458:Drivers/STM32G4xx_HAL_Driver/Inc/stm32g4xx_ll_ucpd.h ****   * @rmtoll CFG2          WUPEN          LL_UCPD_WakeUpEnable
 459:Drivers/STM32G4xx_HAL_Driver/Inc/stm32g4xx_ll_ucpd.h ****   * @param  UCPDx UCPD Instance
 460:Drivers/STM32G4xx_HAL_Driver/Inc/stm32g4xx_ll_ucpd.h ****   * @retval None
 461:Drivers/STM32G4xx_HAL_Driver/Inc/stm32g4xx_ll_ucpd.h ****   */
 462:Drivers/STM32G4xx_HAL_Driver/Inc/stm32g4xx_ll_ucpd.h **** __STATIC_INLINE void LL_UCPD_WakeUpEnable(UCPD_TypeDef *UCPDx)
 463:Drivers/STM32G4xx_HAL_Driver/Inc/stm32g4xx_ll_ucpd.h **** {
 464:Drivers/STM32G4xx_HAL_Driver/Inc/stm32g4xx_ll_ucpd.h ****   SET_BIT(UCPDx->CFG2, UCPD_CFG2_WUPEN);
 465:Drivers/STM32G4xx_HAL_Driver/Inc/stm32g4xx_ll_ucpd.h **** }
 466:Drivers/STM32G4xx_HAL_Driver/Inc/stm32g4xx_ll_ucpd.h **** 
 467:Drivers/STM32G4xx_HAL_Driver/Inc/stm32g4xx_ll_ucpd.h **** /**
 468:Drivers/STM32G4xx_HAL_Driver/Inc/stm32g4xx_ll_ucpd.h ****   * @brief  Disable the wakeup mode
 469:Drivers/STM32G4xx_HAL_Driver/Inc/stm32g4xx_ll_ucpd.h ****   * @rmtoll CFG2          WUPEN          LL_UCPD_WakeUpDisable
 470:Drivers/STM32G4xx_HAL_Driver/Inc/stm32g4xx_ll_ucpd.h ****   * @param  UCPDx UCPD Instance
 471:Drivers/STM32G4xx_HAL_Driver/Inc/stm32g4xx_ll_ucpd.h ****   * @retval None
 472:Drivers/STM32G4xx_HAL_Driver/Inc/stm32g4xx_ll_ucpd.h ****   */
 473:Drivers/STM32G4xx_HAL_Driver/Inc/stm32g4xx_ll_ucpd.h **** __STATIC_INLINE void LL_UCPD_WakeUpDisable(UCPD_TypeDef *UCPDx)
 474:Drivers/STM32G4xx_HAL_Driver/Inc/stm32g4xx_ll_ucpd.h **** {
 475:Drivers/STM32G4xx_HAL_Driver/Inc/stm32g4xx_ll_ucpd.h ****   CLEAR_BIT(UCPDx->CFG2, UCPD_CFG2_WUPEN);
 476:Drivers/STM32G4xx_HAL_Driver/Inc/stm32g4xx_ll_ucpd.h **** }
 477:Drivers/STM32G4xx_HAL_Driver/Inc/stm32g4xx_ll_ucpd.h **** 
 478:Drivers/STM32G4xx_HAL_Driver/Inc/stm32g4xx_ll_ucpd.h **** /**
 479:Drivers/STM32G4xx_HAL_Driver/Inc/stm32g4xx_ll_ucpd.h ****   * @brief  Force clock enable
 480:Drivers/STM32G4xx_HAL_Driver/Inc/stm32g4xx_ll_ucpd.h ****   * @rmtoll CFG2          FORCECLK          LL_UCPD_ForceClockEnable
 481:Drivers/STM32G4xx_HAL_Driver/Inc/stm32g4xx_ll_ucpd.h ****   * @param  UCPDx UCPD Instance
 482:Drivers/STM32G4xx_HAL_Driver/Inc/stm32g4xx_ll_ucpd.h ****   * @retval None
 483:Drivers/STM32G4xx_HAL_Driver/Inc/stm32g4xx_ll_ucpd.h ****   */
 484:Drivers/STM32G4xx_HAL_Driver/Inc/stm32g4xx_ll_ucpd.h **** __STATIC_INLINE void LL_UCPD_ForceClockEnable(UCPD_TypeDef *UCPDx)
 485:Drivers/STM32G4xx_HAL_Driver/Inc/stm32g4xx_ll_ucpd.h **** {
 486:Drivers/STM32G4xx_HAL_Driver/Inc/stm32g4xx_ll_ucpd.h ****   SET_BIT(UCPDx->CFG2, UCPD_CFG2_FORCECLK);
 487:Drivers/STM32G4xx_HAL_Driver/Inc/stm32g4xx_ll_ucpd.h **** }
 488:Drivers/STM32G4xx_HAL_Driver/Inc/stm32g4xx_ll_ucpd.h **** 
 489:Drivers/STM32G4xx_HAL_Driver/Inc/stm32g4xx_ll_ucpd.h **** /**
 490:Drivers/STM32G4xx_HAL_Driver/Inc/stm32g4xx_ll_ucpd.h ****   * @brief  Force clock disable
 491:Drivers/STM32G4xx_HAL_Driver/Inc/stm32g4xx_ll_ucpd.h ****   * @rmtoll CFG2          FORCECLK          LL_UCPD_ForceClockDisable
 492:Drivers/STM32G4xx_HAL_Driver/Inc/stm32g4xx_ll_ucpd.h ****   * @param  UCPDx UCPD Instance
 493:Drivers/STM32G4xx_HAL_Driver/Inc/stm32g4xx_ll_ucpd.h ****   * @retval None
 494:Drivers/STM32G4xx_HAL_Driver/Inc/stm32g4xx_ll_ucpd.h ****   */
 495:Drivers/STM32G4xx_HAL_Driver/Inc/stm32g4xx_ll_ucpd.h **** __STATIC_INLINE void LL_UCPD_ForceClockDisable(UCPD_TypeDef *UCPDx)
 496:Drivers/STM32G4xx_HAL_Driver/Inc/stm32g4xx_ll_ucpd.h **** {
 497:Drivers/STM32G4xx_HAL_Driver/Inc/stm32g4xx_ll_ucpd.h ****   CLEAR_BIT(UCPDx->CFG2, UCPD_CFG2_FORCECLK);
 498:Drivers/STM32G4xx_HAL_Driver/Inc/stm32g4xx_ll_ucpd.h **** }
 499:Drivers/STM32G4xx_HAL_Driver/Inc/stm32g4xx_ll_ucpd.h **** 
 500:Drivers/STM32G4xx_HAL_Driver/Inc/stm32g4xx_ll_ucpd.h **** /**
 501:Drivers/STM32G4xx_HAL_Driver/Inc/stm32g4xx_ll_ucpd.h ****   * @brief  RxFilter enable
 502:Drivers/STM32G4xx_HAL_Driver/Inc/stm32g4xx_ll_ucpd.h ****   * @rmtoll CFG2          RXFILTDIS          LL_UCPD_RxFilterEnable
 503:Drivers/STM32G4xx_HAL_Driver/Inc/stm32g4xx_ll_ucpd.h ****   * @param  UCPDx UCPD Instance
 504:Drivers/STM32G4xx_HAL_Driver/Inc/stm32g4xx_ll_ucpd.h ****   * @retval None
 505:Drivers/STM32G4xx_HAL_Driver/Inc/stm32g4xx_ll_ucpd.h ****   */
 506:Drivers/STM32G4xx_HAL_Driver/Inc/stm32g4xx_ll_ucpd.h **** __STATIC_INLINE void LL_UCPD_RxFilterEnable(UCPD_TypeDef *UCPDx)
ARM GAS  /var/folders/kd/c99kx6qx51n19rszfxl6vhn80000gp/T//ccdYvVMp.s 			page 15


 507:Drivers/STM32G4xx_HAL_Driver/Inc/stm32g4xx_ll_ucpd.h **** {
 508:Drivers/STM32G4xx_HAL_Driver/Inc/stm32g4xx_ll_ucpd.h ****   CLEAR_BIT(UCPDx->CFG2, UCPD_CFG2_RXFILTDIS);
 509:Drivers/STM32G4xx_HAL_Driver/Inc/stm32g4xx_ll_ucpd.h **** }
 510:Drivers/STM32G4xx_HAL_Driver/Inc/stm32g4xx_ll_ucpd.h **** 
 511:Drivers/STM32G4xx_HAL_Driver/Inc/stm32g4xx_ll_ucpd.h **** /**
 512:Drivers/STM32G4xx_HAL_Driver/Inc/stm32g4xx_ll_ucpd.h ****   * @brief  RxFilter disable
 513:Drivers/STM32G4xx_HAL_Driver/Inc/stm32g4xx_ll_ucpd.h ****   * @rmtoll CFG2          RXFILTDIS          LL_UCPD_RxFilterDisable
 514:Drivers/STM32G4xx_HAL_Driver/Inc/stm32g4xx_ll_ucpd.h ****   * @param  UCPDx UCPD Instance
 515:Drivers/STM32G4xx_HAL_Driver/Inc/stm32g4xx_ll_ucpd.h ****   * @retval None
 516:Drivers/STM32G4xx_HAL_Driver/Inc/stm32g4xx_ll_ucpd.h ****   */
 517:Drivers/STM32G4xx_HAL_Driver/Inc/stm32g4xx_ll_ucpd.h **** __STATIC_INLINE void LL_UCPD_RxFilterDisable(UCPD_TypeDef *UCPDx)
 518:Drivers/STM32G4xx_HAL_Driver/Inc/stm32g4xx_ll_ucpd.h **** {
 519:Drivers/STM32G4xx_HAL_Driver/Inc/stm32g4xx_ll_ucpd.h ****   SET_BIT(UCPDx->CFG2, UCPD_CFG2_RXFILTDIS);
 520:Drivers/STM32G4xx_HAL_Driver/Inc/stm32g4xx_ll_ucpd.h **** }
 521:Drivers/STM32G4xx_HAL_Driver/Inc/stm32g4xx_ll_ucpd.h **** 
 522:Drivers/STM32G4xx_HAL_Driver/Inc/stm32g4xx_ll_ucpd.h **** /**
 523:Drivers/STM32G4xx_HAL_Driver/Inc/stm32g4xx_ll_ucpd.h ****   * @}
 524:Drivers/STM32G4xx_HAL_Driver/Inc/stm32g4xx_ll_ucpd.h ****   */
 525:Drivers/STM32G4xx_HAL_Driver/Inc/stm32g4xx_ll_ucpd.h **** 
 526:Drivers/STM32G4xx_HAL_Driver/Inc/stm32g4xx_ll_ucpd.h **** /**
 527:Drivers/STM32G4xx_HAL_Driver/Inc/stm32g4xx_ll_ucpd.h ****   * @}
 528:Drivers/STM32G4xx_HAL_Driver/Inc/stm32g4xx_ll_ucpd.h ****   */
 529:Drivers/STM32G4xx_HAL_Driver/Inc/stm32g4xx_ll_ucpd.h **** 
 530:Drivers/STM32G4xx_HAL_Driver/Inc/stm32g4xx_ll_ucpd.h **** /** @defgroup UCPD_LL_EF_CR CR register
 531:Drivers/STM32G4xx_HAL_Driver/Inc/stm32g4xx_ll_ucpd.h ****   * @{
 532:Drivers/STM32G4xx_HAL_Driver/Inc/stm32g4xx_ll_ucpd.h ****   */
 533:Drivers/STM32G4xx_HAL_Driver/Inc/stm32g4xx_ll_ucpd.h **** /**
 534:Drivers/STM32G4xx_HAL_Driver/Inc/stm32g4xx_ll_ucpd.h ****   * @brief  Type C detector for CC2 enable
 535:Drivers/STM32G4xx_HAL_Driver/Inc/stm32g4xx_ll_ucpd.h ****   * @rmtoll CR          CC2TCDIS          LL_UCPD_TypeCDetectionCC2Enable
 536:Drivers/STM32G4xx_HAL_Driver/Inc/stm32g4xx_ll_ucpd.h ****   * @param  UCPDx UCPD Instance
 537:Drivers/STM32G4xx_HAL_Driver/Inc/stm32g4xx_ll_ucpd.h ****   * @retval None
 538:Drivers/STM32G4xx_HAL_Driver/Inc/stm32g4xx_ll_ucpd.h ****   */
 539:Drivers/STM32G4xx_HAL_Driver/Inc/stm32g4xx_ll_ucpd.h **** __STATIC_INLINE void LL_UCPD_TypeCDetectionCC2Enable(UCPD_TypeDef *UCPDx)
 540:Drivers/STM32G4xx_HAL_Driver/Inc/stm32g4xx_ll_ucpd.h **** {
 541:Drivers/STM32G4xx_HAL_Driver/Inc/stm32g4xx_ll_ucpd.h ****   CLEAR_BIT(UCPDx->CR, UCPD_CR_CC2TCDIS);
 542:Drivers/STM32G4xx_HAL_Driver/Inc/stm32g4xx_ll_ucpd.h **** }
 543:Drivers/STM32G4xx_HAL_Driver/Inc/stm32g4xx_ll_ucpd.h **** 
 544:Drivers/STM32G4xx_HAL_Driver/Inc/stm32g4xx_ll_ucpd.h **** /**
 545:Drivers/STM32G4xx_HAL_Driver/Inc/stm32g4xx_ll_ucpd.h ****   * @brief  Type C detector for CC2 disable
 546:Drivers/STM32G4xx_HAL_Driver/Inc/stm32g4xx_ll_ucpd.h ****   * @rmtoll CR          CC2TCDIS          LL_UCPD_TypeCDetectionCC2Disable
 547:Drivers/STM32G4xx_HAL_Driver/Inc/stm32g4xx_ll_ucpd.h ****   * @param  UCPDx UCPD Instance
 548:Drivers/STM32G4xx_HAL_Driver/Inc/stm32g4xx_ll_ucpd.h ****   * @retval None
 549:Drivers/STM32G4xx_HAL_Driver/Inc/stm32g4xx_ll_ucpd.h ****   */
 550:Drivers/STM32G4xx_HAL_Driver/Inc/stm32g4xx_ll_ucpd.h **** __STATIC_INLINE void LL_UCPD_TypeCDetectionCC2Disable(UCPD_TypeDef *UCPDx)
 551:Drivers/STM32G4xx_HAL_Driver/Inc/stm32g4xx_ll_ucpd.h **** {
 552:Drivers/STM32G4xx_HAL_Driver/Inc/stm32g4xx_ll_ucpd.h ****   SET_BIT(UCPDx->CR, UCPD_CR_CC2TCDIS);
 553:Drivers/STM32G4xx_HAL_Driver/Inc/stm32g4xx_ll_ucpd.h **** }
 554:Drivers/STM32G4xx_HAL_Driver/Inc/stm32g4xx_ll_ucpd.h **** 
 555:Drivers/STM32G4xx_HAL_Driver/Inc/stm32g4xx_ll_ucpd.h **** /**
 556:Drivers/STM32G4xx_HAL_Driver/Inc/stm32g4xx_ll_ucpd.h ****   * @brief  Type C detector for CC1 enable
 557:Drivers/STM32G4xx_HAL_Driver/Inc/stm32g4xx_ll_ucpd.h ****   * @rmtoll CR          CC1TCDIS          LL_UCPD_TypeCDetectionCC1Enable
 558:Drivers/STM32G4xx_HAL_Driver/Inc/stm32g4xx_ll_ucpd.h ****   * @param  UCPDx UCPD Instance
 559:Drivers/STM32G4xx_HAL_Driver/Inc/stm32g4xx_ll_ucpd.h ****   * @retval None
 560:Drivers/STM32G4xx_HAL_Driver/Inc/stm32g4xx_ll_ucpd.h ****   */
 561:Drivers/STM32G4xx_HAL_Driver/Inc/stm32g4xx_ll_ucpd.h **** __STATIC_INLINE void LL_UCPD_TypeCDetectionCC1Enable(UCPD_TypeDef *UCPDx)
 562:Drivers/STM32G4xx_HAL_Driver/Inc/stm32g4xx_ll_ucpd.h **** {
 563:Drivers/STM32G4xx_HAL_Driver/Inc/stm32g4xx_ll_ucpd.h ****   CLEAR_BIT(UCPDx->CR, UCPD_CR_CC1TCDIS);
ARM GAS  /var/folders/kd/c99kx6qx51n19rszfxl6vhn80000gp/T//ccdYvVMp.s 			page 16


 564:Drivers/STM32G4xx_HAL_Driver/Inc/stm32g4xx_ll_ucpd.h **** }
 565:Drivers/STM32G4xx_HAL_Driver/Inc/stm32g4xx_ll_ucpd.h **** 
 566:Drivers/STM32G4xx_HAL_Driver/Inc/stm32g4xx_ll_ucpd.h **** /**
 567:Drivers/STM32G4xx_HAL_Driver/Inc/stm32g4xx_ll_ucpd.h ****   * @brief  Type C detector for CC1 disable
 568:Drivers/STM32G4xx_HAL_Driver/Inc/stm32g4xx_ll_ucpd.h ****   * @rmtoll CR          CC1TCDIS          LL_UCPD_TypeCDetectionCC1Disable
 569:Drivers/STM32G4xx_HAL_Driver/Inc/stm32g4xx_ll_ucpd.h ****   * @param  UCPDx UCPD Instance
 570:Drivers/STM32G4xx_HAL_Driver/Inc/stm32g4xx_ll_ucpd.h ****   * @retval None
 571:Drivers/STM32G4xx_HAL_Driver/Inc/stm32g4xx_ll_ucpd.h ****   */
 572:Drivers/STM32G4xx_HAL_Driver/Inc/stm32g4xx_ll_ucpd.h **** __STATIC_INLINE void LL_UCPD_TypeCDetectionCC1Disable(UCPD_TypeDef *UCPDx)
 573:Drivers/STM32G4xx_HAL_Driver/Inc/stm32g4xx_ll_ucpd.h **** {
 574:Drivers/STM32G4xx_HAL_Driver/Inc/stm32g4xx_ll_ucpd.h ****   SET_BIT(UCPDx->CR, UCPD_CR_CC1TCDIS);
 575:Drivers/STM32G4xx_HAL_Driver/Inc/stm32g4xx_ll_ucpd.h **** }
 576:Drivers/STM32G4xx_HAL_Driver/Inc/stm32g4xx_ll_ucpd.h **** 
 577:Drivers/STM32G4xx_HAL_Driver/Inc/stm32g4xx_ll_ucpd.h **** /**
 578:Drivers/STM32G4xx_HAL_Driver/Inc/stm32g4xx_ll_ucpd.h ****   * @brief  Source Vconn discharge enable
 579:Drivers/STM32G4xx_HAL_Driver/Inc/stm32g4xx_ll_ucpd.h ****   * @rmtoll CR          RDCH          LL_UCPD_VconnDischargeEnable
 580:Drivers/STM32G4xx_HAL_Driver/Inc/stm32g4xx_ll_ucpd.h ****   * @param  UCPDx UCPD Instance
 581:Drivers/STM32G4xx_HAL_Driver/Inc/stm32g4xx_ll_ucpd.h ****   * @retval None
 582:Drivers/STM32G4xx_HAL_Driver/Inc/stm32g4xx_ll_ucpd.h ****   */
 583:Drivers/STM32G4xx_HAL_Driver/Inc/stm32g4xx_ll_ucpd.h **** __STATIC_INLINE void LL_UCPD_VconnDischargeEnable(UCPD_TypeDef *UCPDx)
 584:Drivers/STM32G4xx_HAL_Driver/Inc/stm32g4xx_ll_ucpd.h **** {
 585:Drivers/STM32G4xx_HAL_Driver/Inc/stm32g4xx_ll_ucpd.h ****   SET_BIT(UCPDx->CR, UCPD_CR_RDCH);
 586:Drivers/STM32G4xx_HAL_Driver/Inc/stm32g4xx_ll_ucpd.h **** }
 587:Drivers/STM32G4xx_HAL_Driver/Inc/stm32g4xx_ll_ucpd.h **** 
 588:Drivers/STM32G4xx_HAL_Driver/Inc/stm32g4xx_ll_ucpd.h **** /**
 589:Drivers/STM32G4xx_HAL_Driver/Inc/stm32g4xx_ll_ucpd.h ****   * @brief  Source Vconn discharge disable
 590:Drivers/STM32G4xx_HAL_Driver/Inc/stm32g4xx_ll_ucpd.h ****   * @rmtoll CR          RDCH          LL_UCPD_VconnDischargeDisable
 591:Drivers/STM32G4xx_HAL_Driver/Inc/stm32g4xx_ll_ucpd.h ****   * @param  UCPDx UCPD Instance
 592:Drivers/STM32G4xx_HAL_Driver/Inc/stm32g4xx_ll_ucpd.h ****   * @retval None
 593:Drivers/STM32G4xx_HAL_Driver/Inc/stm32g4xx_ll_ucpd.h ****   */
 594:Drivers/STM32G4xx_HAL_Driver/Inc/stm32g4xx_ll_ucpd.h **** __STATIC_INLINE void LL_UCPD_VconnDischargeDisable(UCPD_TypeDef *UCPDx)
 595:Drivers/STM32G4xx_HAL_Driver/Inc/stm32g4xx_ll_ucpd.h **** {
 596:Drivers/STM32G4xx_HAL_Driver/Inc/stm32g4xx_ll_ucpd.h ****   CLEAR_BIT(UCPDx->CR, UCPD_CR_RDCH);
 597:Drivers/STM32G4xx_HAL_Driver/Inc/stm32g4xx_ll_ucpd.h **** }
 598:Drivers/STM32G4xx_HAL_Driver/Inc/stm32g4xx_ll_ucpd.h **** 
 599:Drivers/STM32G4xx_HAL_Driver/Inc/stm32g4xx_ll_ucpd.h **** /**
 600:Drivers/STM32G4xx_HAL_Driver/Inc/stm32g4xx_ll_ucpd.h ****   * @brief  Signal Fast Role Swap request
 601:Drivers/STM32G4xx_HAL_Driver/Inc/stm32g4xx_ll_ucpd.h ****   * @rmtoll CR          FRSTX          LL_UCPD_VconnDischargeDisable
 602:Drivers/STM32G4xx_HAL_Driver/Inc/stm32g4xx_ll_ucpd.h ****   * @param  UCPDx UCPD Instance
 603:Drivers/STM32G4xx_HAL_Driver/Inc/stm32g4xx_ll_ucpd.h ****   * @retval None
 604:Drivers/STM32G4xx_HAL_Driver/Inc/stm32g4xx_ll_ucpd.h ****   */
 605:Drivers/STM32G4xx_HAL_Driver/Inc/stm32g4xx_ll_ucpd.h **** __STATIC_INLINE void LL_UCPD_SignalFRSTX(UCPD_TypeDef *UCPDx)
 606:Drivers/STM32G4xx_HAL_Driver/Inc/stm32g4xx_ll_ucpd.h **** {
 607:Drivers/STM32G4xx_HAL_Driver/Inc/stm32g4xx_ll_ucpd.h ****   SET_BIT(UCPDx->CR, UCPD_CR_FRSTX);
 608:Drivers/STM32G4xx_HAL_Driver/Inc/stm32g4xx_ll_ucpd.h **** }
 609:Drivers/STM32G4xx_HAL_Driver/Inc/stm32g4xx_ll_ucpd.h **** 
 610:Drivers/STM32G4xx_HAL_Driver/Inc/stm32g4xx_ll_ucpd.h **** /**
 611:Drivers/STM32G4xx_HAL_Driver/Inc/stm32g4xx_ll_ucpd.h ****   * @brief  Fast Role swap RX detection enable
 612:Drivers/STM32G4xx_HAL_Driver/Inc/stm32g4xx_ll_ucpd.h ****   * @rmtoll CR          FRSRXEN          LL_UCPD_FRSDetectionEnable
 613:Drivers/STM32G4xx_HAL_Driver/Inc/stm32g4xx_ll_ucpd.h ****   * @param  UCPDx UCPD Instance
 614:Drivers/STM32G4xx_HAL_Driver/Inc/stm32g4xx_ll_ucpd.h ****   * @retval None
 615:Drivers/STM32G4xx_HAL_Driver/Inc/stm32g4xx_ll_ucpd.h ****   */
 616:Drivers/STM32G4xx_HAL_Driver/Inc/stm32g4xx_ll_ucpd.h **** __STATIC_INLINE void LL_UCPD_FRSDetectionEnable(UCPD_TypeDef *UCPDx)
 617:Drivers/STM32G4xx_HAL_Driver/Inc/stm32g4xx_ll_ucpd.h **** {
 618:Drivers/STM32G4xx_HAL_Driver/Inc/stm32g4xx_ll_ucpd.h ****   SET_BIT(UCPDx->CR, UCPD_CR_FRSRXEN);
 619:Drivers/STM32G4xx_HAL_Driver/Inc/stm32g4xx_ll_ucpd.h **** }
 620:Drivers/STM32G4xx_HAL_Driver/Inc/stm32g4xx_ll_ucpd.h **** 
ARM GAS  /var/folders/kd/c99kx6qx51n19rszfxl6vhn80000gp/T//ccdYvVMp.s 			page 17


 621:Drivers/STM32G4xx_HAL_Driver/Inc/stm32g4xx_ll_ucpd.h **** /**
 622:Drivers/STM32G4xx_HAL_Driver/Inc/stm32g4xx_ll_ucpd.h ****   * @brief  Fast Role swap RX detection disable
 623:Drivers/STM32G4xx_HAL_Driver/Inc/stm32g4xx_ll_ucpd.h ****   * @rmtoll CR          FRSRXEN          LL_UCPD_FRSDetectionDisable
 624:Drivers/STM32G4xx_HAL_Driver/Inc/stm32g4xx_ll_ucpd.h ****   * @param  UCPDx UCPD Instance
 625:Drivers/STM32G4xx_HAL_Driver/Inc/stm32g4xx_ll_ucpd.h ****   * @retval None
 626:Drivers/STM32G4xx_HAL_Driver/Inc/stm32g4xx_ll_ucpd.h ****   */
 627:Drivers/STM32G4xx_HAL_Driver/Inc/stm32g4xx_ll_ucpd.h **** __STATIC_INLINE void LL_UCPD_FRSDetectionDisable(UCPD_TypeDef *UCPDx)
 628:Drivers/STM32G4xx_HAL_Driver/Inc/stm32g4xx_ll_ucpd.h **** {
 629:Drivers/STM32G4xx_HAL_Driver/Inc/stm32g4xx_ll_ucpd.h ****   CLEAR_BIT(UCPDx->CR, UCPD_CR_FRSRXEN);
 630:Drivers/STM32G4xx_HAL_Driver/Inc/stm32g4xx_ll_ucpd.h **** }
 631:Drivers/STM32G4xx_HAL_Driver/Inc/stm32g4xx_ll_ucpd.h **** 
 632:Drivers/STM32G4xx_HAL_Driver/Inc/stm32g4xx_ll_ucpd.h **** /**
 633:Drivers/STM32G4xx_HAL_Driver/Inc/stm32g4xx_ll_ucpd.h ****   * @brief  Set cc enable
 634:Drivers/STM32G4xx_HAL_Driver/Inc/stm32g4xx_ll_ucpd.h ****   * @rmtoll CR          CC1VCONNEN          LL_UCPD_SetccEnable
 635:Drivers/STM32G4xx_HAL_Driver/Inc/stm32g4xx_ll_ucpd.h ****   * @param  UCPDx UCPD Instance
 636:Drivers/STM32G4xx_HAL_Driver/Inc/stm32g4xx_ll_ucpd.h ****   * @param  CCEnable This parameter can be one of the following values:
 637:Drivers/STM32G4xx_HAL_Driver/Inc/stm32g4xx_ll_ucpd.h ****   *         @arg @ref LL_UCPD_CCENABLE_NONE
 638:Drivers/STM32G4xx_HAL_Driver/Inc/stm32g4xx_ll_ucpd.h ****   *         @arg @ref LL_UCPD_CCENABLE_CC1
 639:Drivers/STM32G4xx_HAL_Driver/Inc/stm32g4xx_ll_ucpd.h ****   *         @arg @ref LL_UCPD_CCENABLE_CC2
 640:Drivers/STM32G4xx_HAL_Driver/Inc/stm32g4xx_ll_ucpd.h ****   *         @arg @ref LL_UCPD_CCENABLE_CC1CC2
 641:Drivers/STM32G4xx_HAL_Driver/Inc/stm32g4xx_ll_ucpd.h ****   * @retval None
 642:Drivers/STM32G4xx_HAL_Driver/Inc/stm32g4xx_ll_ucpd.h ****   */
 643:Drivers/STM32G4xx_HAL_Driver/Inc/stm32g4xx_ll_ucpd.h **** __STATIC_INLINE void LL_UCPD_SetccEnable(UCPD_TypeDef *UCPDx, uint32_t CCEnable)
 644:Drivers/STM32G4xx_HAL_Driver/Inc/stm32g4xx_ll_ucpd.h **** {
 645:Drivers/STM32G4xx_HAL_Driver/Inc/stm32g4xx_ll_ucpd.h ****   MODIFY_REG(UCPDx->CR, UCPD_CR_CCENABLE, CCEnable);
 646:Drivers/STM32G4xx_HAL_Driver/Inc/stm32g4xx_ll_ucpd.h **** }
 647:Drivers/STM32G4xx_HAL_Driver/Inc/stm32g4xx_ll_ucpd.h **** 
 648:Drivers/STM32G4xx_HAL_Driver/Inc/stm32g4xx_ll_ucpd.h **** /**
 649:Drivers/STM32G4xx_HAL_Driver/Inc/stm32g4xx_ll_ucpd.h ****   * @brief  Set UCPD SNK role
 650:Drivers/STM32G4xx_HAL_Driver/Inc/stm32g4xx_ll_ucpd.h ****   * @rmtoll CR        ANAMODE          LL_UCPD_SetSNKRole
 651:Drivers/STM32G4xx_HAL_Driver/Inc/stm32g4xx_ll_ucpd.h ****   * @param  UCPDx UCPD Instance
 652:Drivers/STM32G4xx_HAL_Driver/Inc/stm32g4xx_ll_ucpd.h ****   * @retval None
 653:Drivers/STM32G4xx_HAL_Driver/Inc/stm32g4xx_ll_ucpd.h ****   */
 654:Drivers/STM32G4xx_HAL_Driver/Inc/stm32g4xx_ll_ucpd.h **** __STATIC_INLINE void LL_UCPD_SetSNKRole(UCPD_TypeDef *UCPDx)
 655:Drivers/STM32G4xx_HAL_Driver/Inc/stm32g4xx_ll_ucpd.h **** {
 656:Drivers/STM32G4xx_HAL_Driver/Inc/stm32g4xx_ll_ucpd.h ****   SET_BIT(UCPDx->CR, UCPD_CR_ANAMODE);
 657:Drivers/STM32G4xx_HAL_Driver/Inc/stm32g4xx_ll_ucpd.h **** }
 658:Drivers/STM32G4xx_HAL_Driver/Inc/stm32g4xx_ll_ucpd.h **** 
 659:Drivers/STM32G4xx_HAL_Driver/Inc/stm32g4xx_ll_ucpd.h **** /**
 660:Drivers/STM32G4xx_HAL_Driver/Inc/stm32g4xx_ll_ucpd.h ****   * @brief  Set UCPD SRC role
 661:Drivers/STM32G4xx_HAL_Driver/Inc/stm32g4xx_ll_ucpd.h ****   * @rmtoll CR        ANAMODE          LL_UCPD_SetSRCRole
 662:Drivers/STM32G4xx_HAL_Driver/Inc/stm32g4xx_ll_ucpd.h ****   * @param  UCPDx UCPD Instance
 663:Drivers/STM32G4xx_HAL_Driver/Inc/stm32g4xx_ll_ucpd.h ****   * @retval None
 664:Drivers/STM32G4xx_HAL_Driver/Inc/stm32g4xx_ll_ucpd.h ****   */
 665:Drivers/STM32G4xx_HAL_Driver/Inc/stm32g4xx_ll_ucpd.h **** __STATIC_INLINE void LL_UCPD_SetSRCRole(UCPD_TypeDef *UCPDx)
 666:Drivers/STM32G4xx_HAL_Driver/Inc/stm32g4xx_ll_ucpd.h **** {
 667:Drivers/STM32G4xx_HAL_Driver/Inc/stm32g4xx_ll_ucpd.h ****   CLEAR_BIT(UCPDx->CR, UCPD_CR_ANAMODE);
 668:Drivers/STM32G4xx_HAL_Driver/Inc/stm32g4xx_ll_ucpd.h **** }
 669:Drivers/STM32G4xx_HAL_Driver/Inc/stm32g4xx_ll_ucpd.h **** 
 670:Drivers/STM32G4xx_HAL_Driver/Inc/stm32g4xx_ll_ucpd.h **** /**
 671:Drivers/STM32G4xx_HAL_Driver/Inc/stm32g4xx_ll_ucpd.h ****   * @brief  Get UCPD Role
 672:Drivers/STM32G4xx_HAL_Driver/Inc/stm32g4xx_ll_ucpd.h ****   * @rmtoll CR          ANAMODE          LL_UCPD_GetRole
 673:Drivers/STM32G4xx_HAL_Driver/Inc/stm32g4xx_ll_ucpd.h ****   * @param  UCPDx UCPD Instance
 674:Drivers/STM32G4xx_HAL_Driver/Inc/stm32g4xx_ll_ucpd.h ****   * @retval Returned value can be one of the following values:
 675:Drivers/STM32G4xx_HAL_Driver/Inc/stm32g4xx_ll_ucpd.h ****   *         @arg @ref LL_UCPD_ROLE_SNK
 676:Drivers/STM32G4xx_HAL_Driver/Inc/stm32g4xx_ll_ucpd.h ****   *         @arg @ref LL_UCPD_ROLE_SRC
 677:Drivers/STM32G4xx_HAL_Driver/Inc/stm32g4xx_ll_ucpd.h ****   */
ARM GAS  /var/folders/kd/c99kx6qx51n19rszfxl6vhn80000gp/T//ccdYvVMp.s 			page 18


 678:Drivers/STM32G4xx_HAL_Driver/Inc/stm32g4xx_ll_ucpd.h **** __STATIC_INLINE uint32_t LL_UCPD_GetRole(UCPD_TypeDef const *const UCPDx)
 679:Drivers/STM32G4xx_HAL_Driver/Inc/stm32g4xx_ll_ucpd.h **** {
 680:Drivers/STM32G4xx_HAL_Driver/Inc/stm32g4xx_ll_ucpd.h ****   return (uint32_t)(READ_BIT(UCPDx->CR, UCPD_CR_ANAMODE));
 681:Drivers/STM32G4xx_HAL_Driver/Inc/stm32g4xx_ll_ucpd.h **** }
 682:Drivers/STM32G4xx_HAL_Driver/Inc/stm32g4xx_ll_ucpd.h **** 
 683:Drivers/STM32G4xx_HAL_Driver/Inc/stm32g4xx_ll_ucpd.h **** /**
 684:Drivers/STM32G4xx_HAL_Driver/Inc/stm32g4xx_ll_ucpd.h ****   * @brief  Set Rp resistor
 685:Drivers/STM32G4xx_HAL_Driver/Inc/stm32g4xx_ll_ucpd.h ****   * @rmtoll CR        ANASUBMODE          LL_UCPD_SetRpResistor
 686:Drivers/STM32G4xx_HAL_Driver/Inc/stm32g4xx_ll_ucpd.h ****   * @param  UCPDx UCPD Instance
 687:Drivers/STM32G4xx_HAL_Driver/Inc/stm32g4xx_ll_ucpd.h ****   * @param  Resistor This parameter can be one of the following values:
 688:Drivers/STM32G4xx_HAL_Driver/Inc/stm32g4xx_ll_ucpd.h ****   *         @arg @ref LL_UCPD_RESISTOR_DEFAULT
 689:Drivers/STM32G4xx_HAL_Driver/Inc/stm32g4xx_ll_ucpd.h ****   *         @arg @ref LL_UCPD_RESISTOR_1_5A
 690:Drivers/STM32G4xx_HAL_Driver/Inc/stm32g4xx_ll_ucpd.h ****   *         @arg @ref LL_UCPD_RESISTOR_3_0A
 691:Drivers/STM32G4xx_HAL_Driver/Inc/stm32g4xx_ll_ucpd.h ****   *         @arg @ref LL_UCPD_RESISTOR_NONE
 692:Drivers/STM32G4xx_HAL_Driver/Inc/stm32g4xx_ll_ucpd.h ****   * @retval None
 693:Drivers/STM32G4xx_HAL_Driver/Inc/stm32g4xx_ll_ucpd.h ****   */
 694:Drivers/STM32G4xx_HAL_Driver/Inc/stm32g4xx_ll_ucpd.h **** __STATIC_INLINE void LL_UCPD_SetRpResistor(UCPD_TypeDef *UCPDx, uint32_t Resistor)
 695:Drivers/STM32G4xx_HAL_Driver/Inc/stm32g4xx_ll_ucpd.h **** {
 696:Drivers/STM32G4xx_HAL_Driver/Inc/stm32g4xx_ll_ucpd.h ****   MODIFY_REG(UCPDx->CR, UCPD_CR_ANASUBMODE,  Resistor);
 697:Drivers/STM32G4xx_HAL_Driver/Inc/stm32g4xx_ll_ucpd.h **** }
 698:Drivers/STM32G4xx_HAL_Driver/Inc/stm32g4xx_ll_ucpd.h **** 
 699:Drivers/STM32G4xx_HAL_Driver/Inc/stm32g4xx_ll_ucpd.h **** /**
 700:Drivers/STM32G4xx_HAL_Driver/Inc/stm32g4xx_ll_ucpd.h ****   * @brief  Set CC pin
 701:Drivers/STM32G4xx_HAL_Driver/Inc/stm32g4xx_ll_ucpd.h ****   * @rmtoll CR        PHYCCSEL          LL_UCPD_SetCCPin
 702:Drivers/STM32G4xx_HAL_Driver/Inc/stm32g4xx_ll_ucpd.h ****   * @param  UCPDx UCPD Instance
 703:Drivers/STM32G4xx_HAL_Driver/Inc/stm32g4xx_ll_ucpd.h ****   * @param  CCPin This parameter can be one of the following values:
 704:Drivers/STM32G4xx_HAL_Driver/Inc/stm32g4xx_ll_ucpd.h ****   *         @arg @ref LL_UCPD_CCPIN_CC1
 705:Drivers/STM32G4xx_HAL_Driver/Inc/stm32g4xx_ll_ucpd.h ****   *         @arg @ref LL_UCPD_CCPIN_CC2
 706:Drivers/STM32G4xx_HAL_Driver/Inc/stm32g4xx_ll_ucpd.h ****   * @retval None
 707:Drivers/STM32G4xx_HAL_Driver/Inc/stm32g4xx_ll_ucpd.h ****   */
 708:Drivers/STM32G4xx_HAL_Driver/Inc/stm32g4xx_ll_ucpd.h **** __STATIC_INLINE void LL_UCPD_SetCCPin(UCPD_TypeDef *UCPDx, uint32_t CCPin)
 709:Drivers/STM32G4xx_HAL_Driver/Inc/stm32g4xx_ll_ucpd.h **** {
 710:Drivers/STM32G4xx_HAL_Driver/Inc/stm32g4xx_ll_ucpd.h ****   MODIFY_REG(UCPDx->CR, UCPD_CR_PHYCCSEL,  CCPin);
 711:Drivers/STM32G4xx_HAL_Driver/Inc/stm32g4xx_ll_ucpd.h **** }
 712:Drivers/STM32G4xx_HAL_Driver/Inc/stm32g4xx_ll_ucpd.h **** 
 713:Drivers/STM32G4xx_HAL_Driver/Inc/stm32g4xx_ll_ucpd.h **** /**
 714:Drivers/STM32G4xx_HAL_Driver/Inc/stm32g4xx_ll_ucpd.h ****   * @brief  Rx enable
 715:Drivers/STM32G4xx_HAL_Driver/Inc/stm32g4xx_ll_ucpd.h ****   * @rmtoll CR        PHYRXEN          LL_UCPD_RxEnable
 716:Drivers/STM32G4xx_HAL_Driver/Inc/stm32g4xx_ll_ucpd.h ****   * @param  UCPDx UCPD Instance
 717:Drivers/STM32G4xx_HAL_Driver/Inc/stm32g4xx_ll_ucpd.h ****   * @retval None
 718:Drivers/STM32G4xx_HAL_Driver/Inc/stm32g4xx_ll_ucpd.h ****   */
 719:Drivers/STM32G4xx_HAL_Driver/Inc/stm32g4xx_ll_ucpd.h **** __STATIC_INLINE void LL_UCPD_RxEnable(UCPD_TypeDef *UCPDx)
 720:Drivers/STM32G4xx_HAL_Driver/Inc/stm32g4xx_ll_ucpd.h **** {
 721:Drivers/STM32G4xx_HAL_Driver/Inc/stm32g4xx_ll_ucpd.h ****   SET_BIT(UCPDx->CR, UCPD_CR_PHYRXEN);
 722:Drivers/STM32G4xx_HAL_Driver/Inc/stm32g4xx_ll_ucpd.h **** }
 723:Drivers/STM32G4xx_HAL_Driver/Inc/stm32g4xx_ll_ucpd.h **** 
 724:Drivers/STM32G4xx_HAL_Driver/Inc/stm32g4xx_ll_ucpd.h **** /**
 725:Drivers/STM32G4xx_HAL_Driver/Inc/stm32g4xx_ll_ucpd.h ****   * @brief  Rx disable
 726:Drivers/STM32G4xx_HAL_Driver/Inc/stm32g4xx_ll_ucpd.h ****   * @rmtoll CR        PHYRXEN          LL_UCPD_RxDisable
 727:Drivers/STM32G4xx_HAL_Driver/Inc/stm32g4xx_ll_ucpd.h ****   * @param  UCPDx UCPD Instance
 728:Drivers/STM32G4xx_HAL_Driver/Inc/stm32g4xx_ll_ucpd.h ****   * @retval None
 729:Drivers/STM32G4xx_HAL_Driver/Inc/stm32g4xx_ll_ucpd.h ****   */
 730:Drivers/STM32G4xx_HAL_Driver/Inc/stm32g4xx_ll_ucpd.h **** __STATIC_INLINE void LL_UCPD_RxDisable(UCPD_TypeDef *UCPDx)
 731:Drivers/STM32G4xx_HAL_Driver/Inc/stm32g4xx_ll_ucpd.h **** {
 732:Drivers/STM32G4xx_HAL_Driver/Inc/stm32g4xx_ll_ucpd.h ****   CLEAR_BIT(UCPDx->CR, UCPD_CR_PHYRXEN);
 733:Drivers/STM32G4xx_HAL_Driver/Inc/stm32g4xx_ll_ucpd.h **** }
 734:Drivers/STM32G4xx_HAL_Driver/Inc/stm32g4xx_ll_ucpd.h **** 
ARM GAS  /var/folders/kd/c99kx6qx51n19rszfxl6vhn80000gp/T//ccdYvVMp.s 			page 19


 735:Drivers/STM32G4xx_HAL_Driver/Inc/stm32g4xx_ll_ucpd.h **** /**
 736:Drivers/STM32G4xx_HAL_Driver/Inc/stm32g4xx_ll_ucpd.h ****   * @brief  Set Rx mode
 737:Drivers/STM32G4xx_HAL_Driver/Inc/stm32g4xx_ll_ucpd.h ****   * @rmtoll CR        RXMODE          LL_UCPD_SetRxMode
 738:Drivers/STM32G4xx_HAL_Driver/Inc/stm32g4xx_ll_ucpd.h ****   * @param  UCPDx UCPD Instance
 739:Drivers/STM32G4xx_HAL_Driver/Inc/stm32g4xx_ll_ucpd.h ****   * @param  RxMode This parameter can be one of the following values:
 740:Drivers/STM32G4xx_HAL_Driver/Inc/stm32g4xx_ll_ucpd.h ****   *         @arg @ref LL_UCPD_RXMODE_NORMAL
 741:Drivers/STM32G4xx_HAL_Driver/Inc/stm32g4xx_ll_ucpd.h ****   *         @arg @ref LL_UCPD_RXMODE_BIST_TEST_DATA
 742:Drivers/STM32G4xx_HAL_Driver/Inc/stm32g4xx_ll_ucpd.h ****   * @retval None
 743:Drivers/STM32G4xx_HAL_Driver/Inc/stm32g4xx_ll_ucpd.h ****   */
 744:Drivers/STM32G4xx_HAL_Driver/Inc/stm32g4xx_ll_ucpd.h **** __STATIC_INLINE void LL_UCPD_SetRxMode(UCPD_TypeDef *UCPDx, uint32_t RxMode)
 745:Drivers/STM32G4xx_HAL_Driver/Inc/stm32g4xx_ll_ucpd.h **** {
 746:Drivers/STM32G4xx_HAL_Driver/Inc/stm32g4xx_ll_ucpd.h ****   MODIFY_REG(UCPDx->CR, UCPD_CR_RXMODE, RxMode);
 747:Drivers/STM32G4xx_HAL_Driver/Inc/stm32g4xx_ll_ucpd.h **** }
 748:Drivers/STM32G4xx_HAL_Driver/Inc/stm32g4xx_ll_ucpd.h **** 
 749:Drivers/STM32G4xx_HAL_Driver/Inc/stm32g4xx_ll_ucpd.h **** /**
 750:Drivers/STM32G4xx_HAL_Driver/Inc/stm32g4xx_ll_ucpd.h ****   * @brief  Send Hard Reset
 751:Drivers/STM32G4xx_HAL_Driver/Inc/stm32g4xx_ll_ucpd.h ****   * @rmtoll CR        TXHRST          LL_UCPD_SendHardReset
 752:Drivers/STM32G4xx_HAL_Driver/Inc/stm32g4xx_ll_ucpd.h ****   * @param  UCPDx UCPD Instance
 753:Drivers/STM32G4xx_HAL_Driver/Inc/stm32g4xx_ll_ucpd.h ****   * @retval None
 754:Drivers/STM32G4xx_HAL_Driver/Inc/stm32g4xx_ll_ucpd.h ****   */
 755:Drivers/STM32G4xx_HAL_Driver/Inc/stm32g4xx_ll_ucpd.h **** __STATIC_INLINE void LL_UCPD_SendHardReset(UCPD_TypeDef *UCPDx)
 756:Drivers/STM32G4xx_HAL_Driver/Inc/stm32g4xx_ll_ucpd.h **** {
 757:Drivers/STM32G4xx_HAL_Driver/Inc/stm32g4xx_ll_ucpd.h ****   SET_BIT(UCPDx->CR, UCPD_CR_TXHRST);
 758:Drivers/STM32G4xx_HAL_Driver/Inc/stm32g4xx_ll_ucpd.h **** }
 759:Drivers/STM32G4xx_HAL_Driver/Inc/stm32g4xx_ll_ucpd.h **** 
 760:Drivers/STM32G4xx_HAL_Driver/Inc/stm32g4xx_ll_ucpd.h **** /**
 761:Drivers/STM32G4xx_HAL_Driver/Inc/stm32g4xx_ll_ucpd.h ****   * @brief  Send message
 762:Drivers/STM32G4xx_HAL_Driver/Inc/stm32g4xx_ll_ucpd.h ****   * @rmtoll CR        TXSEND          LL_UCPD_SendMessage
 763:Drivers/STM32G4xx_HAL_Driver/Inc/stm32g4xx_ll_ucpd.h ****   * @param  UCPDx UCPD Instance
 764:Drivers/STM32G4xx_HAL_Driver/Inc/stm32g4xx_ll_ucpd.h ****   * @retval None
 765:Drivers/STM32G4xx_HAL_Driver/Inc/stm32g4xx_ll_ucpd.h ****   */
 766:Drivers/STM32G4xx_HAL_Driver/Inc/stm32g4xx_ll_ucpd.h **** __STATIC_INLINE void LL_UCPD_SendMessage(UCPD_TypeDef *UCPDx)
 767:Drivers/STM32G4xx_HAL_Driver/Inc/stm32g4xx_ll_ucpd.h **** {
 768:Drivers/STM32G4xx_HAL_Driver/Inc/stm32g4xx_ll_ucpd.h ****   SET_BIT(UCPDx->CR, UCPD_CR_TXSEND);
 769:Drivers/STM32G4xx_HAL_Driver/Inc/stm32g4xx_ll_ucpd.h **** }
 770:Drivers/STM32G4xx_HAL_Driver/Inc/stm32g4xx_ll_ucpd.h **** 
 771:Drivers/STM32G4xx_HAL_Driver/Inc/stm32g4xx_ll_ucpd.h **** /**
 772:Drivers/STM32G4xx_HAL_Driver/Inc/stm32g4xx_ll_ucpd.h ****   * @brief  Set Tx mode
 773:Drivers/STM32G4xx_HAL_Driver/Inc/stm32g4xx_ll_ucpd.h ****   * @rmtoll CR        TXMODE          LL_UCPD_SetTxMode
 774:Drivers/STM32G4xx_HAL_Driver/Inc/stm32g4xx_ll_ucpd.h ****   * @param  UCPDx UCPD Instance
 775:Drivers/STM32G4xx_HAL_Driver/Inc/stm32g4xx_ll_ucpd.h ****   * @param  TxMode This parameter can be one of the following values:
 776:Drivers/STM32G4xx_HAL_Driver/Inc/stm32g4xx_ll_ucpd.h ****   *         @arg @ref LL_UCPD_TXMODE_NORMAL
 777:Drivers/STM32G4xx_HAL_Driver/Inc/stm32g4xx_ll_ucpd.h ****   *         @arg @ref LL_UCPD_TXMODE_CABLE_RESET
 778:Drivers/STM32G4xx_HAL_Driver/Inc/stm32g4xx_ll_ucpd.h ****   *         @arg @ref LL_UCPD_TXMODE_BIST_CARRIER2
 779:Drivers/STM32G4xx_HAL_Driver/Inc/stm32g4xx_ll_ucpd.h ****   * @retval None
 780:Drivers/STM32G4xx_HAL_Driver/Inc/stm32g4xx_ll_ucpd.h ****   */
 781:Drivers/STM32G4xx_HAL_Driver/Inc/stm32g4xx_ll_ucpd.h **** __STATIC_INLINE void LL_UCPD_SetTxMode(UCPD_TypeDef *UCPDx, uint32_t TxMode)
 782:Drivers/STM32G4xx_HAL_Driver/Inc/stm32g4xx_ll_ucpd.h **** {
 783:Drivers/STM32G4xx_HAL_Driver/Inc/stm32g4xx_ll_ucpd.h ****   MODIFY_REG(UCPDx->CR, UCPD_CR_TXMODE, TxMode);
 784:Drivers/STM32G4xx_HAL_Driver/Inc/stm32g4xx_ll_ucpd.h **** }
 785:Drivers/STM32G4xx_HAL_Driver/Inc/stm32g4xx_ll_ucpd.h **** 
 786:Drivers/STM32G4xx_HAL_Driver/Inc/stm32g4xx_ll_ucpd.h **** /**
 787:Drivers/STM32G4xx_HAL_Driver/Inc/stm32g4xx_ll_ucpd.h ****   * @}
 788:Drivers/STM32G4xx_HAL_Driver/Inc/stm32g4xx_ll_ucpd.h ****   */
 789:Drivers/STM32G4xx_HAL_Driver/Inc/stm32g4xx_ll_ucpd.h **** 
 790:Drivers/STM32G4xx_HAL_Driver/Inc/stm32g4xx_ll_ucpd.h **** /** @defgroup UCPD_LL_EF_IT_Management Interrupt Management
 791:Drivers/STM32G4xx_HAL_Driver/Inc/stm32g4xx_ll_ucpd.h ****   * @{
ARM GAS  /var/folders/kd/c99kx6qx51n19rszfxl6vhn80000gp/T//ccdYvVMp.s 			page 20


 792:Drivers/STM32G4xx_HAL_Driver/Inc/stm32g4xx_ll_ucpd.h ****   */
 793:Drivers/STM32G4xx_HAL_Driver/Inc/stm32g4xx_ll_ucpd.h **** 
 794:Drivers/STM32G4xx_HAL_Driver/Inc/stm32g4xx_ll_ucpd.h **** /**
 795:Drivers/STM32G4xx_HAL_Driver/Inc/stm32g4xx_ll_ucpd.h ****   * @brief  Enable FRS interrupt
 796:Drivers/STM32G4xx_HAL_Driver/Inc/stm32g4xx_ll_ucpd.h ****   * @rmtoll IMR          FRSEVTIE         LL_UCPD_EnableIT_FRS
 797:Drivers/STM32G4xx_HAL_Driver/Inc/stm32g4xx_ll_ucpd.h ****   * @param  UCPDx UCPD Instance
 798:Drivers/STM32G4xx_HAL_Driver/Inc/stm32g4xx_ll_ucpd.h ****   * @retval None
 799:Drivers/STM32G4xx_HAL_Driver/Inc/stm32g4xx_ll_ucpd.h ****   */
 800:Drivers/STM32G4xx_HAL_Driver/Inc/stm32g4xx_ll_ucpd.h **** __STATIC_INLINE void LL_UCPD_EnableIT_FRS(UCPD_TypeDef *UCPDx)
 801:Drivers/STM32G4xx_HAL_Driver/Inc/stm32g4xx_ll_ucpd.h **** {
 802:Drivers/STM32G4xx_HAL_Driver/Inc/stm32g4xx_ll_ucpd.h ****   SET_BIT(UCPDx->IMR, UCPD_IMR_FRSEVTIE);
 803:Drivers/STM32G4xx_HAL_Driver/Inc/stm32g4xx_ll_ucpd.h **** }
 804:Drivers/STM32G4xx_HAL_Driver/Inc/stm32g4xx_ll_ucpd.h **** 
 805:Drivers/STM32G4xx_HAL_Driver/Inc/stm32g4xx_ll_ucpd.h **** /**
 806:Drivers/STM32G4xx_HAL_Driver/Inc/stm32g4xx_ll_ucpd.h ****   * @brief  Enable type c event on CC2
 807:Drivers/STM32G4xx_HAL_Driver/Inc/stm32g4xx_ll_ucpd.h ****   * @rmtoll IMR          TYPECEVT2IE        LL_UCPD_EnableIT_TypeCEventCC2
 808:Drivers/STM32G4xx_HAL_Driver/Inc/stm32g4xx_ll_ucpd.h ****   * @param  UCPDx UCPD Instance
 809:Drivers/STM32G4xx_HAL_Driver/Inc/stm32g4xx_ll_ucpd.h ****   * @retval None
 810:Drivers/STM32G4xx_HAL_Driver/Inc/stm32g4xx_ll_ucpd.h ****   */
 811:Drivers/STM32G4xx_HAL_Driver/Inc/stm32g4xx_ll_ucpd.h **** __STATIC_INLINE void LL_UCPD_EnableIT_TypeCEventCC2(UCPD_TypeDef *UCPDx)
 812:Drivers/STM32G4xx_HAL_Driver/Inc/stm32g4xx_ll_ucpd.h **** {
 813:Drivers/STM32G4xx_HAL_Driver/Inc/stm32g4xx_ll_ucpd.h ****   SET_BIT(UCPDx->IMR, UCPD_IMR_TYPECEVT2IE);
 814:Drivers/STM32G4xx_HAL_Driver/Inc/stm32g4xx_ll_ucpd.h **** }
 815:Drivers/STM32G4xx_HAL_Driver/Inc/stm32g4xx_ll_ucpd.h **** 
 816:Drivers/STM32G4xx_HAL_Driver/Inc/stm32g4xx_ll_ucpd.h **** /**
 817:Drivers/STM32G4xx_HAL_Driver/Inc/stm32g4xx_ll_ucpd.h ****   * @brief  Enable type c event on CC1
 818:Drivers/STM32G4xx_HAL_Driver/Inc/stm32g4xx_ll_ucpd.h ****   * @rmtoll IMR          TYPECEVT1IE        LL_UCPD_EnableIT_TypeCEventCC1
 819:Drivers/STM32G4xx_HAL_Driver/Inc/stm32g4xx_ll_ucpd.h ****   * @param  UCPDx UCPD Instance
 820:Drivers/STM32G4xx_HAL_Driver/Inc/stm32g4xx_ll_ucpd.h ****   * @retval None
 821:Drivers/STM32G4xx_HAL_Driver/Inc/stm32g4xx_ll_ucpd.h ****   */
 822:Drivers/STM32G4xx_HAL_Driver/Inc/stm32g4xx_ll_ucpd.h **** __STATIC_INLINE void LL_UCPD_EnableIT_TypeCEventCC1(UCPD_TypeDef *UCPDx)
 823:Drivers/STM32G4xx_HAL_Driver/Inc/stm32g4xx_ll_ucpd.h **** {
 824:Drivers/STM32G4xx_HAL_Driver/Inc/stm32g4xx_ll_ucpd.h ****   SET_BIT(UCPDx->IMR, UCPD_IMR_TYPECEVT1IE);
 825:Drivers/STM32G4xx_HAL_Driver/Inc/stm32g4xx_ll_ucpd.h **** }
 826:Drivers/STM32G4xx_HAL_Driver/Inc/stm32g4xx_ll_ucpd.h **** 
 827:Drivers/STM32G4xx_HAL_Driver/Inc/stm32g4xx_ll_ucpd.h **** /**
 828:Drivers/STM32G4xx_HAL_Driver/Inc/stm32g4xx_ll_ucpd.h ****   * @brief  Enable Rx message end interrupt
 829:Drivers/STM32G4xx_HAL_Driver/Inc/stm32g4xx_ll_ucpd.h ****   * @rmtoll IMR          RXMSGENDIE         LL_UCPD_EnableIT_RxMsgEnd
 830:Drivers/STM32G4xx_HAL_Driver/Inc/stm32g4xx_ll_ucpd.h ****   * @param  UCPDx UCPD Instance
 831:Drivers/STM32G4xx_HAL_Driver/Inc/stm32g4xx_ll_ucpd.h ****   * @retval None
 832:Drivers/STM32G4xx_HAL_Driver/Inc/stm32g4xx_ll_ucpd.h ****   */
 833:Drivers/STM32G4xx_HAL_Driver/Inc/stm32g4xx_ll_ucpd.h **** __STATIC_INLINE void LL_UCPD_EnableIT_RxMsgEnd(UCPD_TypeDef *UCPDx)
 834:Drivers/STM32G4xx_HAL_Driver/Inc/stm32g4xx_ll_ucpd.h **** {
 835:Drivers/STM32G4xx_HAL_Driver/Inc/stm32g4xx_ll_ucpd.h ****   SET_BIT(UCPDx->IMR, UCPD_IMR_RXMSGENDIE);
 836:Drivers/STM32G4xx_HAL_Driver/Inc/stm32g4xx_ll_ucpd.h **** }
 837:Drivers/STM32G4xx_HAL_Driver/Inc/stm32g4xx_ll_ucpd.h **** 
 838:Drivers/STM32G4xx_HAL_Driver/Inc/stm32g4xx_ll_ucpd.h **** /**
 839:Drivers/STM32G4xx_HAL_Driver/Inc/stm32g4xx_ll_ucpd.h ****   * @brief  Enable Rx overrun interrupt
 840:Drivers/STM32G4xx_HAL_Driver/Inc/stm32g4xx_ll_ucpd.h ****   * @rmtoll IMR          RXOVRIE         LL_UCPD_EnableIT_RxOvr
 841:Drivers/STM32G4xx_HAL_Driver/Inc/stm32g4xx_ll_ucpd.h ****   * @param  UCPDx UCPD Instance
 842:Drivers/STM32G4xx_HAL_Driver/Inc/stm32g4xx_ll_ucpd.h ****   * @retval None
 843:Drivers/STM32G4xx_HAL_Driver/Inc/stm32g4xx_ll_ucpd.h ****   */
 844:Drivers/STM32G4xx_HAL_Driver/Inc/stm32g4xx_ll_ucpd.h **** __STATIC_INLINE void LL_UCPD_EnableIT_RxOvr(UCPD_TypeDef *UCPDx)
 845:Drivers/STM32G4xx_HAL_Driver/Inc/stm32g4xx_ll_ucpd.h **** {
 846:Drivers/STM32G4xx_HAL_Driver/Inc/stm32g4xx_ll_ucpd.h ****   SET_BIT(UCPDx->IMR, UCPD_IMR_RXOVRIE);
 847:Drivers/STM32G4xx_HAL_Driver/Inc/stm32g4xx_ll_ucpd.h **** }
 848:Drivers/STM32G4xx_HAL_Driver/Inc/stm32g4xx_ll_ucpd.h **** 
ARM GAS  /var/folders/kd/c99kx6qx51n19rszfxl6vhn80000gp/T//ccdYvVMp.s 			page 21


 849:Drivers/STM32G4xx_HAL_Driver/Inc/stm32g4xx_ll_ucpd.h **** /**
 850:Drivers/STM32G4xx_HAL_Driver/Inc/stm32g4xx_ll_ucpd.h ****   * @brief  Enable Rx hard resrt interrupt
 851:Drivers/STM32G4xx_HAL_Driver/Inc/stm32g4xx_ll_ucpd.h ****   * @rmtoll IMR          RXHRSTDETIE         LL_UCPD_EnableIT_RxHRST
 852:Drivers/STM32G4xx_HAL_Driver/Inc/stm32g4xx_ll_ucpd.h ****   * @param  UCPDx UCPD Instance
 853:Drivers/STM32G4xx_HAL_Driver/Inc/stm32g4xx_ll_ucpd.h ****   * @retval None
 854:Drivers/STM32G4xx_HAL_Driver/Inc/stm32g4xx_ll_ucpd.h ****   */
 855:Drivers/STM32G4xx_HAL_Driver/Inc/stm32g4xx_ll_ucpd.h **** __STATIC_INLINE void LL_UCPD_EnableIT_RxHRST(UCPD_TypeDef *UCPDx)
 856:Drivers/STM32G4xx_HAL_Driver/Inc/stm32g4xx_ll_ucpd.h **** {
 857:Drivers/STM32G4xx_HAL_Driver/Inc/stm32g4xx_ll_ucpd.h ****   SET_BIT(UCPDx->IMR, UCPD_IMR_RXHRSTDETIE);
 858:Drivers/STM32G4xx_HAL_Driver/Inc/stm32g4xx_ll_ucpd.h **** }
 859:Drivers/STM32G4xx_HAL_Driver/Inc/stm32g4xx_ll_ucpd.h **** 
 860:Drivers/STM32G4xx_HAL_Driver/Inc/stm32g4xx_ll_ucpd.h **** /**
 861:Drivers/STM32G4xx_HAL_Driver/Inc/stm32g4xx_ll_ucpd.h ****   * @brief  Enable Rx orderset interrupt
 862:Drivers/STM32G4xx_HAL_Driver/Inc/stm32g4xx_ll_ucpd.h ****   * @rmtoll IMR          RXORDDETIE         LL_UCPD_EnableIT_RxOrderSet
 863:Drivers/STM32G4xx_HAL_Driver/Inc/stm32g4xx_ll_ucpd.h ****   * @param  UCPDx UCPD Instance
 864:Drivers/STM32G4xx_HAL_Driver/Inc/stm32g4xx_ll_ucpd.h ****   * @retval None
 865:Drivers/STM32G4xx_HAL_Driver/Inc/stm32g4xx_ll_ucpd.h ****   */
 866:Drivers/STM32G4xx_HAL_Driver/Inc/stm32g4xx_ll_ucpd.h **** __STATIC_INLINE void LL_UCPD_EnableIT_RxOrderSet(UCPD_TypeDef *UCPDx)
 867:Drivers/STM32G4xx_HAL_Driver/Inc/stm32g4xx_ll_ucpd.h **** {
 868:Drivers/STM32G4xx_HAL_Driver/Inc/stm32g4xx_ll_ucpd.h ****   SET_BIT(UCPDx->IMR, UCPD_IMR_RXORDDETIE);
 869:Drivers/STM32G4xx_HAL_Driver/Inc/stm32g4xx_ll_ucpd.h **** }
 870:Drivers/STM32G4xx_HAL_Driver/Inc/stm32g4xx_ll_ucpd.h **** 
 871:Drivers/STM32G4xx_HAL_Driver/Inc/stm32g4xx_ll_ucpd.h **** /**
 872:Drivers/STM32G4xx_HAL_Driver/Inc/stm32g4xx_ll_ucpd.h ****   * @brief  Enable Rx non empty interrupt
 873:Drivers/STM32G4xx_HAL_Driver/Inc/stm32g4xx_ll_ucpd.h ****   * @rmtoll IMR          RXNEIE         LL_UCPD_EnableIT_RxNE
 874:Drivers/STM32G4xx_HAL_Driver/Inc/stm32g4xx_ll_ucpd.h ****   * @param  UCPDx UCPD Instance
 875:Drivers/STM32G4xx_HAL_Driver/Inc/stm32g4xx_ll_ucpd.h ****   * @retval None
 876:Drivers/STM32G4xx_HAL_Driver/Inc/stm32g4xx_ll_ucpd.h ****   */
 877:Drivers/STM32G4xx_HAL_Driver/Inc/stm32g4xx_ll_ucpd.h **** __STATIC_INLINE void LL_UCPD_EnableIT_RxNE(UCPD_TypeDef *UCPDx)
 878:Drivers/STM32G4xx_HAL_Driver/Inc/stm32g4xx_ll_ucpd.h **** {
 879:Drivers/STM32G4xx_HAL_Driver/Inc/stm32g4xx_ll_ucpd.h ****   SET_BIT(UCPDx->IMR, UCPD_IMR_RXNEIE);
 880:Drivers/STM32G4xx_HAL_Driver/Inc/stm32g4xx_ll_ucpd.h **** }
 881:Drivers/STM32G4xx_HAL_Driver/Inc/stm32g4xx_ll_ucpd.h **** 
 882:Drivers/STM32G4xx_HAL_Driver/Inc/stm32g4xx_ll_ucpd.h **** /**
 883:Drivers/STM32G4xx_HAL_Driver/Inc/stm32g4xx_ll_ucpd.h ****   * @brief  Enable TX underrun interrupt
 884:Drivers/STM32G4xx_HAL_Driver/Inc/stm32g4xx_ll_ucpd.h ****   * @rmtoll IMR          TXUNDIE         LL_UCPD_EnableIT_TxUND
 885:Drivers/STM32G4xx_HAL_Driver/Inc/stm32g4xx_ll_ucpd.h ****   * @param  UCPDx UCPD Instance
 886:Drivers/STM32G4xx_HAL_Driver/Inc/stm32g4xx_ll_ucpd.h ****   * @retval None
 887:Drivers/STM32G4xx_HAL_Driver/Inc/stm32g4xx_ll_ucpd.h ****   */
 888:Drivers/STM32G4xx_HAL_Driver/Inc/stm32g4xx_ll_ucpd.h **** __STATIC_INLINE void LL_UCPD_EnableIT_TxUND(UCPD_TypeDef *UCPDx)
 889:Drivers/STM32G4xx_HAL_Driver/Inc/stm32g4xx_ll_ucpd.h **** {
 890:Drivers/STM32G4xx_HAL_Driver/Inc/stm32g4xx_ll_ucpd.h ****   SET_BIT(UCPDx->IMR, UCPD_IMR_TXUNDIE);
 891:Drivers/STM32G4xx_HAL_Driver/Inc/stm32g4xx_ll_ucpd.h **** }
 892:Drivers/STM32G4xx_HAL_Driver/Inc/stm32g4xx_ll_ucpd.h **** 
 893:Drivers/STM32G4xx_HAL_Driver/Inc/stm32g4xx_ll_ucpd.h **** /**
 894:Drivers/STM32G4xx_HAL_Driver/Inc/stm32g4xx_ll_ucpd.h ****   * @brief  Enable hard reset sent interrupt
 895:Drivers/STM32G4xx_HAL_Driver/Inc/stm32g4xx_ll_ucpd.h ****   * @rmtoll IMR          HRSTSENTIE         LL_UCPD_EnableIT_TxHRSTSENT
 896:Drivers/STM32G4xx_HAL_Driver/Inc/stm32g4xx_ll_ucpd.h ****   * @param  UCPDx UCPD Instance
 897:Drivers/STM32G4xx_HAL_Driver/Inc/stm32g4xx_ll_ucpd.h ****   * @retval None
 898:Drivers/STM32G4xx_HAL_Driver/Inc/stm32g4xx_ll_ucpd.h ****   */
 899:Drivers/STM32G4xx_HAL_Driver/Inc/stm32g4xx_ll_ucpd.h **** __STATIC_INLINE void LL_UCPD_EnableIT_TxHRSTSENT(UCPD_TypeDef *UCPDx)
 900:Drivers/STM32G4xx_HAL_Driver/Inc/stm32g4xx_ll_ucpd.h **** {
 901:Drivers/STM32G4xx_HAL_Driver/Inc/stm32g4xx_ll_ucpd.h ****   SET_BIT(UCPDx->IMR, UCPD_IMR_HRSTSENTIE);
 902:Drivers/STM32G4xx_HAL_Driver/Inc/stm32g4xx_ll_ucpd.h **** }
 903:Drivers/STM32G4xx_HAL_Driver/Inc/stm32g4xx_ll_ucpd.h **** 
 904:Drivers/STM32G4xx_HAL_Driver/Inc/stm32g4xx_ll_ucpd.h **** /**
 905:Drivers/STM32G4xx_HAL_Driver/Inc/stm32g4xx_ll_ucpd.h ****   * @brief  Enable hard reset discard interrupt
ARM GAS  /var/folders/kd/c99kx6qx51n19rszfxl6vhn80000gp/T//ccdYvVMp.s 			page 22


 906:Drivers/STM32G4xx_HAL_Driver/Inc/stm32g4xx_ll_ucpd.h ****   * @rmtoll IMR          HRSTDISCIE         LL_UCPD_EnableIT_TxHRSTDISC
 907:Drivers/STM32G4xx_HAL_Driver/Inc/stm32g4xx_ll_ucpd.h ****   * @param  UCPDx UCPD Instance
 908:Drivers/STM32G4xx_HAL_Driver/Inc/stm32g4xx_ll_ucpd.h ****   * @retval None
 909:Drivers/STM32G4xx_HAL_Driver/Inc/stm32g4xx_ll_ucpd.h ****   */
 910:Drivers/STM32G4xx_HAL_Driver/Inc/stm32g4xx_ll_ucpd.h **** __STATIC_INLINE void LL_UCPD_EnableIT_TxHRSTDISC(UCPD_TypeDef *UCPDx)
 911:Drivers/STM32G4xx_HAL_Driver/Inc/stm32g4xx_ll_ucpd.h **** {
 912:Drivers/STM32G4xx_HAL_Driver/Inc/stm32g4xx_ll_ucpd.h ****   SET_BIT(UCPDx->IMR, UCPD_IMR_HRSTDISCIE);
 913:Drivers/STM32G4xx_HAL_Driver/Inc/stm32g4xx_ll_ucpd.h **** }
 914:Drivers/STM32G4xx_HAL_Driver/Inc/stm32g4xx_ll_ucpd.h **** 
 915:Drivers/STM32G4xx_HAL_Driver/Inc/stm32g4xx_ll_ucpd.h **** /**
 916:Drivers/STM32G4xx_HAL_Driver/Inc/stm32g4xx_ll_ucpd.h ****   * @brief  Enable Tx message abort interrupt
 917:Drivers/STM32G4xx_HAL_Driver/Inc/stm32g4xx_ll_ucpd.h ****   * @rmtoll IMR          TXMSGABTIE         LL_UCPD_EnableIT_TxMSGABT
 918:Drivers/STM32G4xx_HAL_Driver/Inc/stm32g4xx_ll_ucpd.h ****   * @param  UCPDx UCPD Instance
 919:Drivers/STM32G4xx_HAL_Driver/Inc/stm32g4xx_ll_ucpd.h ****   * @retval None
 920:Drivers/STM32G4xx_HAL_Driver/Inc/stm32g4xx_ll_ucpd.h ****   */
 921:Drivers/STM32G4xx_HAL_Driver/Inc/stm32g4xx_ll_ucpd.h **** __STATIC_INLINE void LL_UCPD_EnableIT_TxMSGABT(UCPD_TypeDef *UCPDx)
 922:Drivers/STM32G4xx_HAL_Driver/Inc/stm32g4xx_ll_ucpd.h **** {
 923:Drivers/STM32G4xx_HAL_Driver/Inc/stm32g4xx_ll_ucpd.h ****   SET_BIT(UCPDx->IMR, UCPD_IMR_TXMSGABTIE);
 924:Drivers/STM32G4xx_HAL_Driver/Inc/stm32g4xx_ll_ucpd.h **** }
 925:Drivers/STM32G4xx_HAL_Driver/Inc/stm32g4xx_ll_ucpd.h **** 
 926:Drivers/STM32G4xx_HAL_Driver/Inc/stm32g4xx_ll_ucpd.h **** /**
 927:Drivers/STM32G4xx_HAL_Driver/Inc/stm32g4xx_ll_ucpd.h ****   * @brief  Enable Tx message sent interrupt
 928:Drivers/STM32G4xx_HAL_Driver/Inc/stm32g4xx_ll_ucpd.h ****   * @rmtoll IMR          TXMSGSENTIE         LL_UCPD_EnableIT_TxMSGSENT
 929:Drivers/STM32G4xx_HAL_Driver/Inc/stm32g4xx_ll_ucpd.h ****   * @param  UCPDx UCPD Instance
 930:Drivers/STM32G4xx_HAL_Driver/Inc/stm32g4xx_ll_ucpd.h ****   * @retval None
 931:Drivers/STM32G4xx_HAL_Driver/Inc/stm32g4xx_ll_ucpd.h ****   */
 932:Drivers/STM32G4xx_HAL_Driver/Inc/stm32g4xx_ll_ucpd.h **** __STATIC_INLINE void LL_UCPD_EnableIT_TxMSGSENT(UCPD_TypeDef *UCPDx)
 933:Drivers/STM32G4xx_HAL_Driver/Inc/stm32g4xx_ll_ucpd.h **** {
 934:Drivers/STM32G4xx_HAL_Driver/Inc/stm32g4xx_ll_ucpd.h ****   SET_BIT(UCPDx->IMR, UCPD_IMR_TXMSGSENTIE);
 935:Drivers/STM32G4xx_HAL_Driver/Inc/stm32g4xx_ll_ucpd.h **** }
 936:Drivers/STM32G4xx_HAL_Driver/Inc/stm32g4xx_ll_ucpd.h **** 
 937:Drivers/STM32G4xx_HAL_Driver/Inc/stm32g4xx_ll_ucpd.h **** /**
 938:Drivers/STM32G4xx_HAL_Driver/Inc/stm32g4xx_ll_ucpd.h ****   * @brief  Enable Tx message discarded interrupt
 939:Drivers/STM32G4xx_HAL_Driver/Inc/stm32g4xx_ll_ucpd.h ****   * @rmtoll IMR          TXMSGDISCIE         LL_UCPD_EnableIT_TxMSGDISC
 940:Drivers/STM32G4xx_HAL_Driver/Inc/stm32g4xx_ll_ucpd.h ****   * @param  UCPDx UCPD Instance
 941:Drivers/STM32G4xx_HAL_Driver/Inc/stm32g4xx_ll_ucpd.h ****   * @retval None
 942:Drivers/STM32G4xx_HAL_Driver/Inc/stm32g4xx_ll_ucpd.h ****   */
 943:Drivers/STM32G4xx_HAL_Driver/Inc/stm32g4xx_ll_ucpd.h **** __STATIC_INLINE void LL_UCPD_EnableIT_TxMSGDISC(UCPD_TypeDef *UCPDx)
 944:Drivers/STM32G4xx_HAL_Driver/Inc/stm32g4xx_ll_ucpd.h **** {
 945:Drivers/STM32G4xx_HAL_Driver/Inc/stm32g4xx_ll_ucpd.h ****   SET_BIT(UCPDx->IMR, UCPD_IMR_TXMSGDISCIE);
 946:Drivers/STM32G4xx_HAL_Driver/Inc/stm32g4xx_ll_ucpd.h **** }
 947:Drivers/STM32G4xx_HAL_Driver/Inc/stm32g4xx_ll_ucpd.h **** 
 948:Drivers/STM32G4xx_HAL_Driver/Inc/stm32g4xx_ll_ucpd.h **** /**
 949:Drivers/STM32G4xx_HAL_Driver/Inc/stm32g4xx_ll_ucpd.h ****   * @brief  Enable Tx data receive interrupt
 950:Drivers/STM32G4xx_HAL_Driver/Inc/stm32g4xx_ll_ucpd.h ****   * @rmtoll IMR          TXISIE         LL_UCPD_EnableIT_TxIS
 951:Drivers/STM32G4xx_HAL_Driver/Inc/stm32g4xx_ll_ucpd.h ****   * @param  UCPDx UCPD Instance
 952:Drivers/STM32G4xx_HAL_Driver/Inc/stm32g4xx_ll_ucpd.h ****   * @retval None
 953:Drivers/STM32G4xx_HAL_Driver/Inc/stm32g4xx_ll_ucpd.h ****   */
 954:Drivers/STM32G4xx_HAL_Driver/Inc/stm32g4xx_ll_ucpd.h **** __STATIC_INLINE void LL_UCPD_EnableIT_TxIS(UCPD_TypeDef *UCPDx)
 955:Drivers/STM32G4xx_HAL_Driver/Inc/stm32g4xx_ll_ucpd.h **** {
 956:Drivers/STM32G4xx_HAL_Driver/Inc/stm32g4xx_ll_ucpd.h ****   SET_BIT(UCPDx->IMR, UCPD_IMR_TXISIE);
 957:Drivers/STM32G4xx_HAL_Driver/Inc/stm32g4xx_ll_ucpd.h **** }
 958:Drivers/STM32G4xx_HAL_Driver/Inc/stm32g4xx_ll_ucpd.h **** 
 959:Drivers/STM32G4xx_HAL_Driver/Inc/stm32g4xx_ll_ucpd.h **** /**
 960:Drivers/STM32G4xx_HAL_Driver/Inc/stm32g4xx_ll_ucpd.h ****   * @brief  Disable FRS interrupt
 961:Drivers/STM32G4xx_HAL_Driver/Inc/stm32g4xx_ll_ucpd.h ****   * @rmtoll IMR          FRSEVTIE         LL_UCPD_DisableIT_FRS
 962:Drivers/STM32G4xx_HAL_Driver/Inc/stm32g4xx_ll_ucpd.h ****   * @param  UCPDx UCPD Instance
ARM GAS  /var/folders/kd/c99kx6qx51n19rszfxl6vhn80000gp/T//ccdYvVMp.s 			page 23


 963:Drivers/STM32G4xx_HAL_Driver/Inc/stm32g4xx_ll_ucpd.h ****   * @retval None
 964:Drivers/STM32G4xx_HAL_Driver/Inc/stm32g4xx_ll_ucpd.h ****   */
 965:Drivers/STM32G4xx_HAL_Driver/Inc/stm32g4xx_ll_ucpd.h **** __STATIC_INLINE void LL_UCPD_DisableIT_FRS(UCPD_TypeDef *UCPDx)
 966:Drivers/STM32G4xx_HAL_Driver/Inc/stm32g4xx_ll_ucpd.h **** {
 967:Drivers/STM32G4xx_HAL_Driver/Inc/stm32g4xx_ll_ucpd.h ****   CLEAR_BIT(UCPDx->IMR, UCPD_IMR_FRSEVTIE);
 968:Drivers/STM32G4xx_HAL_Driver/Inc/stm32g4xx_ll_ucpd.h **** }
 969:Drivers/STM32G4xx_HAL_Driver/Inc/stm32g4xx_ll_ucpd.h **** 
 970:Drivers/STM32G4xx_HAL_Driver/Inc/stm32g4xx_ll_ucpd.h **** /**
 971:Drivers/STM32G4xx_HAL_Driver/Inc/stm32g4xx_ll_ucpd.h ****   * @brief  Disable type c event on CC2
 972:Drivers/STM32G4xx_HAL_Driver/Inc/stm32g4xx_ll_ucpd.h ****   * @rmtoll IMR          TYPECEVT2IE        LL_UCPD_DisableIT_TypeCEventCC2
 973:Drivers/STM32G4xx_HAL_Driver/Inc/stm32g4xx_ll_ucpd.h ****   * @param  UCPDx UCPD Instance
 974:Drivers/STM32G4xx_HAL_Driver/Inc/stm32g4xx_ll_ucpd.h ****   * @retval None
 975:Drivers/STM32G4xx_HAL_Driver/Inc/stm32g4xx_ll_ucpd.h ****   */
 976:Drivers/STM32G4xx_HAL_Driver/Inc/stm32g4xx_ll_ucpd.h **** __STATIC_INLINE void LL_UCPD_DisableIT_TypeCEventCC2(UCPD_TypeDef *UCPDx)
 977:Drivers/STM32G4xx_HAL_Driver/Inc/stm32g4xx_ll_ucpd.h **** {
 978:Drivers/STM32G4xx_HAL_Driver/Inc/stm32g4xx_ll_ucpd.h ****   CLEAR_BIT(UCPDx->IMR, UCPD_IMR_TYPECEVT2IE);
 979:Drivers/STM32G4xx_HAL_Driver/Inc/stm32g4xx_ll_ucpd.h **** }
 980:Drivers/STM32G4xx_HAL_Driver/Inc/stm32g4xx_ll_ucpd.h **** 
 981:Drivers/STM32G4xx_HAL_Driver/Inc/stm32g4xx_ll_ucpd.h **** /**
 982:Drivers/STM32G4xx_HAL_Driver/Inc/stm32g4xx_ll_ucpd.h ****   * @brief  Disable type c event on CC1
 983:Drivers/STM32G4xx_HAL_Driver/Inc/stm32g4xx_ll_ucpd.h ****   * @rmtoll IMR          TYPECEVT1IE        LL_UCPD_DisableIT_TypeCEventCC1
 984:Drivers/STM32G4xx_HAL_Driver/Inc/stm32g4xx_ll_ucpd.h ****   * @param  UCPDx UCPD Instance
 985:Drivers/STM32G4xx_HAL_Driver/Inc/stm32g4xx_ll_ucpd.h ****   * @retval None
 986:Drivers/STM32G4xx_HAL_Driver/Inc/stm32g4xx_ll_ucpd.h ****   */
 987:Drivers/STM32G4xx_HAL_Driver/Inc/stm32g4xx_ll_ucpd.h **** __STATIC_INLINE void LL_UCPD_DisableIT_TypeCEventCC1(UCPD_TypeDef *UCPDx)
 988:Drivers/STM32G4xx_HAL_Driver/Inc/stm32g4xx_ll_ucpd.h **** {
 989:Drivers/STM32G4xx_HAL_Driver/Inc/stm32g4xx_ll_ucpd.h ****   CLEAR_BIT(UCPDx->IMR, UCPD_IMR_TYPECEVT1IE);
 990:Drivers/STM32G4xx_HAL_Driver/Inc/stm32g4xx_ll_ucpd.h **** }
 991:Drivers/STM32G4xx_HAL_Driver/Inc/stm32g4xx_ll_ucpd.h **** 
 992:Drivers/STM32G4xx_HAL_Driver/Inc/stm32g4xx_ll_ucpd.h **** /**
 993:Drivers/STM32G4xx_HAL_Driver/Inc/stm32g4xx_ll_ucpd.h ****   * @brief  Disable Rx message end interrupt
 994:Drivers/STM32G4xx_HAL_Driver/Inc/stm32g4xx_ll_ucpd.h ****   * @rmtoll IMR          RXMSGENDIE         LL_UCPD_DisableIT_RxMsgEnd
 995:Drivers/STM32G4xx_HAL_Driver/Inc/stm32g4xx_ll_ucpd.h ****   * @param  UCPDx UCPD Instance
 996:Drivers/STM32G4xx_HAL_Driver/Inc/stm32g4xx_ll_ucpd.h ****   * @retval None
 997:Drivers/STM32G4xx_HAL_Driver/Inc/stm32g4xx_ll_ucpd.h ****   */
 998:Drivers/STM32G4xx_HAL_Driver/Inc/stm32g4xx_ll_ucpd.h **** __STATIC_INLINE void LL_UCPD_DisableIT_RxMsgEnd(UCPD_TypeDef *UCPDx)
 999:Drivers/STM32G4xx_HAL_Driver/Inc/stm32g4xx_ll_ucpd.h **** {
1000:Drivers/STM32G4xx_HAL_Driver/Inc/stm32g4xx_ll_ucpd.h ****   CLEAR_BIT(UCPDx->IMR, UCPD_IMR_RXMSGENDIE);
1001:Drivers/STM32G4xx_HAL_Driver/Inc/stm32g4xx_ll_ucpd.h **** }
1002:Drivers/STM32G4xx_HAL_Driver/Inc/stm32g4xx_ll_ucpd.h **** 
1003:Drivers/STM32G4xx_HAL_Driver/Inc/stm32g4xx_ll_ucpd.h **** /**
1004:Drivers/STM32G4xx_HAL_Driver/Inc/stm32g4xx_ll_ucpd.h ****   * @brief  Disable Rx overrun interrupt
1005:Drivers/STM32G4xx_HAL_Driver/Inc/stm32g4xx_ll_ucpd.h ****   * @rmtoll IMR          RXOVRIE         LL_UCPD_DisableIT_RxOvr
1006:Drivers/STM32G4xx_HAL_Driver/Inc/stm32g4xx_ll_ucpd.h ****   * @param  UCPDx UCPD Instance
1007:Drivers/STM32G4xx_HAL_Driver/Inc/stm32g4xx_ll_ucpd.h ****   * @retval None
1008:Drivers/STM32G4xx_HAL_Driver/Inc/stm32g4xx_ll_ucpd.h ****   */
1009:Drivers/STM32G4xx_HAL_Driver/Inc/stm32g4xx_ll_ucpd.h **** __STATIC_INLINE void LL_UCPD_DisableIT_RxOvr(UCPD_TypeDef *UCPDx)
1010:Drivers/STM32G4xx_HAL_Driver/Inc/stm32g4xx_ll_ucpd.h **** {
1011:Drivers/STM32G4xx_HAL_Driver/Inc/stm32g4xx_ll_ucpd.h ****   CLEAR_BIT(UCPDx->IMR, UCPD_IMR_RXOVRIE);
1012:Drivers/STM32G4xx_HAL_Driver/Inc/stm32g4xx_ll_ucpd.h **** }
1013:Drivers/STM32G4xx_HAL_Driver/Inc/stm32g4xx_ll_ucpd.h **** 
1014:Drivers/STM32G4xx_HAL_Driver/Inc/stm32g4xx_ll_ucpd.h **** /**
1015:Drivers/STM32G4xx_HAL_Driver/Inc/stm32g4xx_ll_ucpd.h ****   * @brief  Disable Rx hard resrt interrupt
1016:Drivers/STM32G4xx_HAL_Driver/Inc/stm32g4xx_ll_ucpd.h ****   * @rmtoll IMR          RXHRSTDETIE         LL_UCPD_DisableIT_RxHRST
1017:Drivers/STM32G4xx_HAL_Driver/Inc/stm32g4xx_ll_ucpd.h ****   * @param  UCPDx UCPD Instance
1018:Drivers/STM32G4xx_HAL_Driver/Inc/stm32g4xx_ll_ucpd.h ****   * @retval None
1019:Drivers/STM32G4xx_HAL_Driver/Inc/stm32g4xx_ll_ucpd.h ****   */
ARM GAS  /var/folders/kd/c99kx6qx51n19rszfxl6vhn80000gp/T//ccdYvVMp.s 			page 24


1020:Drivers/STM32G4xx_HAL_Driver/Inc/stm32g4xx_ll_ucpd.h **** __STATIC_INLINE void LL_UCPD_DisableIT_RxHRST(UCPD_TypeDef *UCPDx)
1021:Drivers/STM32G4xx_HAL_Driver/Inc/stm32g4xx_ll_ucpd.h **** {
1022:Drivers/STM32G4xx_HAL_Driver/Inc/stm32g4xx_ll_ucpd.h ****   CLEAR_BIT(UCPDx->IMR, UCPD_IMR_RXHRSTDETIE);
1023:Drivers/STM32G4xx_HAL_Driver/Inc/stm32g4xx_ll_ucpd.h **** }
1024:Drivers/STM32G4xx_HAL_Driver/Inc/stm32g4xx_ll_ucpd.h **** 
1025:Drivers/STM32G4xx_HAL_Driver/Inc/stm32g4xx_ll_ucpd.h **** /**
1026:Drivers/STM32G4xx_HAL_Driver/Inc/stm32g4xx_ll_ucpd.h ****   * @brief  Disable Rx orderset interrupt
1027:Drivers/STM32G4xx_HAL_Driver/Inc/stm32g4xx_ll_ucpd.h ****   * @rmtoll IMR          RXORDDETIE         LL_UCPD_DisableIT_RxOrderSet
1028:Drivers/STM32G4xx_HAL_Driver/Inc/stm32g4xx_ll_ucpd.h ****   * @param  UCPDx UCPD Instance
1029:Drivers/STM32G4xx_HAL_Driver/Inc/stm32g4xx_ll_ucpd.h ****   * @retval None
1030:Drivers/STM32G4xx_HAL_Driver/Inc/stm32g4xx_ll_ucpd.h ****   */
1031:Drivers/STM32G4xx_HAL_Driver/Inc/stm32g4xx_ll_ucpd.h **** __STATIC_INLINE void LL_UCPD_DisableIT_RxOrderSet(UCPD_TypeDef *UCPDx)
1032:Drivers/STM32G4xx_HAL_Driver/Inc/stm32g4xx_ll_ucpd.h **** {
1033:Drivers/STM32G4xx_HAL_Driver/Inc/stm32g4xx_ll_ucpd.h ****   CLEAR_BIT(UCPDx->IMR, UCPD_IMR_RXORDDETIE);
1034:Drivers/STM32G4xx_HAL_Driver/Inc/stm32g4xx_ll_ucpd.h **** }
1035:Drivers/STM32G4xx_HAL_Driver/Inc/stm32g4xx_ll_ucpd.h **** 
1036:Drivers/STM32G4xx_HAL_Driver/Inc/stm32g4xx_ll_ucpd.h **** /**
1037:Drivers/STM32G4xx_HAL_Driver/Inc/stm32g4xx_ll_ucpd.h ****   * @brief  Disable Rx non empty interrupt
1038:Drivers/STM32G4xx_HAL_Driver/Inc/stm32g4xx_ll_ucpd.h ****   * @rmtoll IMR          RXNEIE         LL_UCPD_DisableIT_RxNE
1039:Drivers/STM32G4xx_HAL_Driver/Inc/stm32g4xx_ll_ucpd.h ****   * @param  UCPDx UCPD Instance
1040:Drivers/STM32G4xx_HAL_Driver/Inc/stm32g4xx_ll_ucpd.h ****   * @retval None
1041:Drivers/STM32G4xx_HAL_Driver/Inc/stm32g4xx_ll_ucpd.h ****   */
1042:Drivers/STM32G4xx_HAL_Driver/Inc/stm32g4xx_ll_ucpd.h **** __STATIC_INLINE void LL_UCPD_DisableIT_RxNE(UCPD_TypeDef *UCPDx)
1043:Drivers/STM32G4xx_HAL_Driver/Inc/stm32g4xx_ll_ucpd.h **** {
1044:Drivers/STM32G4xx_HAL_Driver/Inc/stm32g4xx_ll_ucpd.h ****   CLEAR_BIT(UCPDx->IMR, UCPD_IMR_RXNEIE);
1045:Drivers/STM32G4xx_HAL_Driver/Inc/stm32g4xx_ll_ucpd.h **** }
1046:Drivers/STM32G4xx_HAL_Driver/Inc/stm32g4xx_ll_ucpd.h **** 
1047:Drivers/STM32G4xx_HAL_Driver/Inc/stm32g4xx_ll_ucpd.h **** /**
1048:Drivers/STM32G4xx_HAL_Driver/Inc/stm32g4xx_ll_ucpd.h ****   * @brief  Disable TX underrun interrupt
1049:Drivers/STM32G4xx_HAL_Driver/Inc/stm32g4xx_ll_ucpd.h ****   * @rmtoll IMR          TXUNDIE         LL_UCPD_DisableIT_TxUND
1050:Drivers/STM32G4xx_HAL_Driver/Inc/stm32g4xx_ll_ucpd.h ****   * @param  UCPDx UCPD Instance
1051:Drivers/STM32G4xx_HAL_Driver/Inc/stm32g4xx_ll_ucpd.h ****   * @retval None
1052:Drivers/STM32G4xx_HAL_Driver/Inc/stm32g4xx_ll_ucpd.h ****   */
1053:Drivers/STM32G4xx_HAL_Driver/Inc/stm32g4xx_ll_ucpd.h **** __STATIC_INLINE void LL_UCPD_DisableIT_TxUND(UCPD_TypeDef *UCPDx)
1054:Drivers/STM32G4xx_HAL_Driver/Inc/stm32g4xx_ll_ucpd.h **** {
1055:Drivers/STM32G4xx_HAL_Driver/Inc/stm32g4xx_ll_ucpd.h ****   CLEAR_BIT(UCPDx->IMR, UCPD_IMR_TXUNDIE);
1056:Drivers/STM32G4xx_HAL_Driver/Inc/stm32g4xx_ll_ucpd.h **** }
1057:Drivers/STM32G4xx_HAL_Driver/Inc/stm32g4xx_ll_ucpd.h **** 
1058:Drivers/STM32G4xx_HAL_Driver/Inc/stm32g4xx_ll_ucpd.h **** /**
1059:Drivers/STM32G4xx_HAL_Driver/Inc/stm32g4xx_ll_ucpd.h ****   * @brief  Disable hard reset sent interrupt
1060:Drivers/STM32G4xx_HAL_Driver/Inc/stm32g4xx_ll_ucpd.h ****   * @rmtoll IMR          HRSTSENTIE         LL_UCPD_DisableIT_TxHRSTSENT
1061:Drivers/STM32G4xx_HAL_Driver/Inc/stm32g4xx_ll_ucpd.h ****   * @param  UCPDx UCPD Instance
1062:Drivers/STM32G4xx_HAL_Driver/Inc/stm32g4xx_ll_ucpd.h ****   * @retval None
1063:Drivers/STM32G4xx_HAL_Driver/Inc/stm32g4xx_ll_ucpd.h ****   */
1064:Drivers/STM32G4xx_HAL_Driver/Inc/stm32g4xx_ll_ucpd.h **** __STATIC_INLINE void LL_UCPD_DisableIT_TxHRSTSENT(UCPD_TypeDef *UCPDx)
1065:Drivers/STM32G4xx_HAL_Driver/Inc/stm32g4xx_ll_ucpd.h **** {
1066:Drivers/STM32G4xx_HAL_Driver/Inc/stm32g4xx_ll_ucpd.h ****   CLEAR_BIT(UCPDx->IMR, UCPD_IMR_HRSTSENTIE);
1067:Drivers/STM32G4xx_HAL_Driver/Inc/stm32g4xx_ll_ucpd.h **** }
1068:Drivers/STM32G4xx_HAL_Driver/Inc/stm32g4xx_ll_ucpd.h **** 
1069:Drivers/STM32G4xx_HAL_Driver/Inc/stm32g4xx_ll_ucpd.h **** /**
1070:Drivers/STM32G4xx_HAL_Driver/Inc/stm32g4xx_ll_ucpd.h ****   * @brief  Disable hard reset discard interrupt
1071:Drivers/STM32G4xx_HAL_Driver/Inc/stm32g4xx_ll_ucpd.h ****   * @rmtoll IMR          HRSTDISCIE         LL_UCPD_DisableIT_TxHRSTDISC
1072:Drivers/STM32G4xx_HAL_Driver/Inc/stm32g4xx_ll_ucpd.h ****   * @param  UCPDx UCPD Instance
1073:Drivers/STM32G4xx_HAL_Driver/Inc/stm32g4xx_ll_ucpd.h ****   * @retval None
1074:Drivers/STM32G4xx_HAL_Driver/Inc/stm32g4xx_ll_ucpd.h ****   */
1075:Drivers/STM32G4xx_HAL_Driver/Inc/stm32g4xx_ll_ucpd.h **** __STATIC_INLINE void LL_UCPD_DisableIT_TxHRSTDISC(UCPD_TypeDef *UCPDx)
1076:Drivers/STM32G4xx_HAL_Driver/Inc/stm32g4xx_ll_ucpd.h **** {
ARM GAS  /var/folders/kd/c99kx6qx51n19rszfxl6vhn80000gp/T//ccdYvVMp.s 			page 25


1077:Drivers/STM32G4xx_HAL_Driver/Inc/stm32g4xx_ll_ucpd.h ****   CLEAR_BIT(UCPDx->IMR, UCPD_IMR_HRSTDISCIE);
1078:Drivers/STM32G4xx_HAL_Driver/Inc/stm32g4xx_ll_ucpd.h **** }
1079:Drivers/STM32G4xx_HAL_Driver/Inc/stm32g4xx_ll_ucpd.h **** 
1080:Drivers/STM32G4xx_HAL_Driver/Inc/stm32g4xx_ll_ucpd.h **** /**
1081:Drivers/STM32G4xx_HAL_Driver/Inc/stm32g4xx_ll_ucpd.h ****   * @brief  Disable Tx message abort interrupt
1082:Drivers/STM32G4xx_HAL_Driver/Inc/stm32g4xx_ll_ucpd.h ****   * @rmtoll IMR          TXMSGABTIE         LL_UCPD_DisableIT_TxMSGABT
1083:Drivers/STM32G4xx_HAL_Driver/Inc/stm32g4xx_ll_ucpd.h ****   * @param  UCPDx UCPD Instance
1084:Drivers/STM32G4xx_HAL_Driver/Inc/stm32g4xx_ll_ucpd.h ****   * @retval None
1085:Drivers/STM32G4xx_HAL_Driver/Inc/stm32g4xx_ll_ucpd.h ****   */
1086:Drivers/STM32G4xx_HAL_Driver/Inc/stm32g4xx_ll_ucpd.h **** __STATIC_INLINE void LL_UCPD_DisableIT_TxMSGABT(UCPD_TypeDef *UCPDx)
1087:Drivers/STM32G4xx_HAL_Driver/Inc/stm32g4xx_ll_ucpd.h **** {
1088:Drivers/STM32G4xx_HAL_Driver/Inc/stm32g4xx_ll_ucpd.h ****   CLEAR_BIT(UCPDx->IMR, UCPD_IMR_TXMSGABTIE);
1089:Drivers/STM32G4xx_HAL_Driver/Inc/stm32g4xx_ll_ucpd.h **** }
1090:Drivers/STM32G4xx_HAL_Driver/Inc/stm32g4xx_ll_ucpd.h **** 
1091:Drivers/STM32G4xx_HAL_Driver/Inc/stm32g4xx_ll_ucpd.h **** /**
1092:Drivers/STM32G4xx_HAL_Driver/Inc/stm32g4xx_ll_ucpd.h ****   * @brief  Disable Tx message sent interrupt
1093:Drivers/STM32G4xx_HAL_Driver/Inc/stm32g4xx_ll_ucpd.h ****   * @rmtoll IMR          TXMSGSENTIE         LL_UCPD_DisableIT_TxMSGSENT
1094:Drivers/STM32G4xx_HAL_Driver/Inc/stm32g4xx_ll_ucpd.h ****   * @param  UCPDx UCPD Instance
1095:Drivers/STM32G4xx_HAL_Driver/Inc/stm32g4xx_ll_ucpd.h ****   * @retval None
1096:Drivers/STM32G4xx_HAL_Driver/Inc/stm32g4xx_ll_ucpd.h ****   */
1097:Drivers/STM32G4xx_HAL_Driver/Inc/stm32g4xx_ll_ucpd.h **** __STATIC_INLINE void LL_UCPD_DisableIT_TxMSGSENT(UCPD_TypeDef *UCPDx)
1098:Drivers/STM32G4xx_HAL_Driver/Inc/stm32g4xx_ll_ucpd.h **** {
1099:Drivers/STM32G4xx_HAL_Driver/Inc/stm32g4xx_ll_ucpd.h ****   CLEAR_BIT(UCPDx->IMR, UCPD_IMR_TXMSGSENTIE);
1100:Drivers/STM32G4xx_HAL_Driver/Inc/stm32g4xx_ll_ucpd.h **** }
1101:Drivers/STM32G4xx_HAL_Driver/Inc/stm32g4xx_ll_ucpd.h **** 
1102:Drivers/STM32G4xx_HAL_Driver/Inc/stm32g4xx_ll_ucpd.h **** /**
1103:Drivers/STM32G4xx_HAL_Driver/Inc/stm32g4xx_ll_ucpd.h ****   * @brief  Disable Tx message discarded interrupt
1104:Drivers/STM32G4xx_HAL_Driver/Inc/stm32g4xx_ll_ucpd.h ****   * @rmtoll IMR          TXMSGDISCIE         LL_UCPD_DisableIT_TxMSGDISC
1105:Drivers/STM32G4xx_HAL_Driver/Inc/stm32g4xx_ll_ucpd.h ****   * @param  UCPDx UCPD Instance
1106:Drivers/STM32G4xx_HAL_Driver/Inc/stm32g4xx_ll_ucpd.h ****   * @retval None
1107:Drivers/STM32G4xx_HAL_Driver/Inc/stm32g4xx_ll_ucpd.h ****   */
1108:Drivers/STM32G4xx_HAL_Driver/Inc/stm32g4xx_ll_ucpd.h **** __STATIC_INLINE void LL_UCPD_DisableIT_TxMSGDISC(UCPD_TypeDef *UCPDx)
1109:Drivers/STM32G4xx_HAL_Driver/Inc/stm32g4xx_ll_ucpd.h **** {
1110:Drivers/STM32G4xx_HAL_Driver/Inc/stm32g4xx_ll_ucpd.h ****   CLEAR_BIT(UCPDx->IMR, UCPD_IMR_TXMSGDISCIE);
1111:Drivers/STM32G4xx_HAL_Driver/Inc/stm32g4xx_ll_ucpd.h **** }
1112:Drivers/STM32G4xx_HAL_Driver/Inc/stm32g4xx_ll_ucpd.h **** 
1113:Drivers/STM32G4xx_HAL_Driver/Inc/stm32g4xx_ll_ucpd.h **** /**
1114:Drivers/STM32G4xx_HAL_Driver/Inc/stm32g4xx_ll_ucpd.h ****   * @brief  Disable Tx data receive interrupt
1115:Drivers/STM32G4xx_HAL_Driver/Inc/stm32g4xx_ll_ucpd.h ****   * @rmtoll IMR          TXISIE         LL_UCPD_DisableIT_TxIS
1116:Drivers/STM32G4xx_HAL_Driver/Inc/stm32g4xx_ll_ucpd.h ****   * @param  UCPDx UCPD Instance
1117:Drivers/STM32G4xx_HAL_Driver/Inc/stm32g4xx_ll_ucpd.h ****   * @retval None
1118:Drivers/STM32G4xx_HAL_Driver/Inc/stm32g4xx_ll_ucpd.h ****   */
1119:Drivers/STM32G4xx_HAL_Driver/Inc/stm32g4xx_ll_ucpd.h **** __STATIC_INLINE void LL_UCPD_DisableIT_TxIS(UCPD_TypeDef *UCPDx)
1120:Drivers/STM32G4xx_HAL_Driver/Inc/stm32g4xx_ll_ucpd.h **** {
1121:Drivers/STM32G4xx_HAL_Driver/Inc/stm32g4xx_ll_ucpd.h ****   CLEAR_BIT(UCPDx->IMR, UCPD_IMR_TXISIE);
1122:Drivers/STM32G4xx_HAL_Driver/Inc/stm32g4xx_ll_ucpd.h **** }
1123:Drivers/STM32G4xx_HAL_Driver/Inc/stm32g4xx_ll_ucpd.h **** 
1124:Drivers/STM32G4xx_HAL_Driver/Inc/stm32g4xx_ll_ucpd.h **** /**
1125:Drivers/STM32G4xx_HAL_Driver/Inc/stm32g4xx_ll_ucpd.h ****   * @brief  Check if FRS interrupt enabled
1126:Drivers/STM32G4xx_HAL_Driver/Inc/stm32g4xx_ll_ucpd.h ****   * @rmtoll IMR          FRSEVTIE         LL_UCPD_DisableIT_FRS
1127:Drivers/STM32G4xx_HAL_Driver/Inc/stm32g4xx_ll_ucpd.h ****   * @param  UCPDx UCPD Instance
1128:Drivers/STM32G4xx_HAL_Driver/Inc/stm32g4xx_ll_ucpd.h ****   * @retval State of bit (1 or 0).
1129:Drivers/STM32G4xx_HAL_Driver/Inc/stm32g4xx_ll_ucpd.h ****   */
1130:Drivers/STM32G4xx_HAL_Driver/Inc/stm32g4xx_ll_ucpd.h **** __STATIC_INLINE uint32_t LL_UCPD_IsEnableIT_FRS(UCPD_TypeDef const *const UCPDx)
1131:Drivers/STM32G4xx_HAL_Driver/Inc/stm32g4xx_ll_ucpd.h **** {
1132:Drivers/STM32G4xx_HAL_Driver/Inc/stm32g4xx_ll_ucpd.h ****   return ((READ_BIT(UCPDx->IMR, UCPD_IMR_FRSEVTIE) == UCPD_IMR_FRSEVTIE) ? 1UL : 0UL);
1133:Drivers/STM32G4xx_HAL_Driver/Inc/stm32g4xx_ll_ucpd.h **** }
ARM GAS  /var/folders/kd/c99kx6qx51n19rszfxl6vhn80000gp/T//ccdYvVMp.s 			page 26


1134:Drivers/STM32G4xx_HAL_Driver/Inc/stm32g4xx_ll_ucpd.h **** 
1135:Drivers/STM32G4xx_HAL_Driver/Inc/stm32g4xx_ll_ucpd.h **** /**
1136:Drivers/STM32G4xx_HAL_Driver/Inc/stm32g4xx_ll_ucpd.h ****   * @brief  Check if type c event on CC2 enabled
1137:Drivers/STM32G4xx_HAL_Driver/Inc/stm32g4xx_ll_ucpd.h ****   * @rmtoll IMR          TYPECEVT2IE        LL_UCPD_DisableIT_TypeCEventCC2
1138:Drivers/STM32G4xx_HAL_Driver/Inc/stm32g4xx_ll_ucpd.h ****   * @param  UCPDx UCPD Instance
1139:Drivers/STM32G4xx_HAL_Driver/Inc/stm32g4xx_ll_ucpd.h ****   * @retval State of bit (1 or 0).
1140:Drivers/STM32G4xx_HAL_Driver/Inc/stm32g4xx_ll_ucpd.h ****   */
1141:Drivers/STM32G4xx_HAL_Driver/Inc/stm32g4xx_ll_ucpd.h **** __STATIC_INLINE uint32_t LL_UCPD_IsEnableIT_TypeCEventCC2(UCPD_TypeDef const *const UCPDx)
1142:Drivers/STM32G4xx_HAL_Driver/Inc/stm32g4xx_ll_ucpd.h **** {
1143:Drivers/STM32G4xx_HAL_Driver/Inc/stm32g4xx_ll_ucpd.h ****   return ((READ_BIT(UCPDx->IMR, UCPD_IMR_TYPECEVT2IE) == UCPD_IMR_TYPECEVT2IE) ? 1UL : 0UL);
1144:Drivers/STM32G4xx_HAL_Driver/Inc/stm32g4xx_ll_ucpd.h **** }
1145:Drivers/STM32G4xx_HAL_Driver/Inc/stm32g4xx_ll_ucpd.h **** 
1146:Drivers/STM32G4xx_HAL_Driver/Inc/stm32g4xx_ll_ucpd.h **** /**
1147:Drivers/STM32G4xx_HAL_Driver/Inc/stm32g4xx_ll_ucpd.h ****   * @brief  Check if type c event on CC1 enabled
1148:Drivers/STM32G4xx_HAL_Driver/Inc/stm32g4xx_ll_ucpd.h ****   * @rmtoll IMR2          TYPECEVT1IE        LL_UCPD_IsEnableIT_TypeCEventCC1
1149:Drivers/STM32G4xx_HAL_Driver/Inc/stm32g4xx_ll_ucpd.h ****   * @param  UCPDx UCPD Instance
1150:Drivers/STM32G4xx_HAL_Driver/Inc/stm32g4xx_ll_ucpd.h ****   * @retval State of bit (1 or 0).
1151:Drivers/STM32G4xx_HAL_Driver/Inc/stm32g4xx_ll_ucpd.h ****   */
1152:Drivers/STM32G4xx_HAL_Driver/Inc/stm32g4xx_ll_ucpd.h **** __STATIC_INLINE uint32_t LL_UCPD_IsEnableIT_TypeCEventCC1(UCPD_TypeDef const *const UCPDx)
1153:Drivers/STM32G4xx_HAL_Driver/Inc/stm32g4xx_ll_ucpd.h **** {
1154:Drivers/STM32G4xx_HAL_Driver/Inc/stm32g4xx_ll_ucpd.h ****   return ((READ_BIT(UCPDx->IMR, UCPD_IMR_TYPECEVT1IE) == UCPD_IMR_TYPECEVT1IE) ? 1UL : 0UL);
1155:Drivers/STM32G4xx_HAL_Driver/Inc/stm32g4xx_ll_ucpd.h **** }
1156:Drivers/STM32G4xx_HAL_Driver/Inc/stm32g4xx_ll_ucpd.h **** 
1157:Drivers/STM32G4xx_HAL_Driver/Inc/stm32g4xx_ll_ucpd.h **** /**
1158:Drivers/STM32G4xx_HAL_Driver/Inc/stm32g4xx_ll_ucpd.h ****   * @brief  Check if Rx message end interrupt enabled
1159:Drivers/STM32G4xx_HAL_Driver/Inc/stm32g4xx_ll_ucpd.h ****   * @rmtoll IMR          RXMSGENDIE         LL_UCPD_IsEnableIT_RxMsgEnd
1160:Drivers/STM32G4xx_HAL_Driver/Inc/stm32g4xx_ll_ucpd.h ****   * @param  UCPDx UCPD Instance
1161:Drivers/STM32G4xx_HAL_Driver/Inc/stm32g4xx_ll_ucpd.h ****   * @retval State of bit (1 or 0).
1162:Drivers/STM32G4xx_HAL_Driver/Inc/stm32g4xx_ll_ucpd.h ****   */
1163:Drivers/STM32G4xx_HAL_Driver/Inc/stm32g4xx_ll_ucpd.h **** __STATIC_INLINE uint32_t LL_UCPD_IsEnableIT_RxMsgEnd(UCPD_TypeDef const *const UCPDx)
1164:Drivers/STM32G4xx_HAL_Driver/Inc/stm32g4xx_ll_ucpd.h **** {
1165:Drivers/STM32G4xx_HAL_Driver/Inc/stm32g4xx_ll_ucpd.h ****   return ((READ_BIT(UCPDx->IMR, UCPD_IMR_RXMSGENDIE) == UCPD_IMR_RXMSGENDIE) ? 1UL : 0UL);
1166:Drivers/STM32G4xx_HAL_Driver/Inc/stm32g4xx_ll_ucpd.h **** }
1167:Drivers/STM32G4xx_HAL_Driver/Inc/stm32g4xx_ll_ucpd.h **** 
1168:Drivers/STM32G4xx_HAL_Driver/Inc/stm32g4xx_ll_ucpd.h **** /**
1169:Drivers/STM32G4xx_HAL_Driver/Inc/stm32g4xx_ll_ucpd.h ****   * @brief  Check if Rx overrun interrupt enabled
1170:Drivers/STM32G4xx_HAL_Driver/Inc/stm32g4xx_ll_ucpd.h ****   * @rmtoll IMR          RXOVRIE         LL_UCPD_IsEnableIT_RxOvr
1171:Drivers/STM32G4xx_HAL_Driver/Inc/stm32g4xx_ll_ucpd.h ****   * @param  UCPDx UCPD Instance
1172:Drivers/STM32G4xx_HAL_Driver/Inc/stm32g4xx_ll_ucpd.h ****   * @retval State of bit (1 or 0).
1173:Drivers/STM32G4xx_HAL_Driver/Inc/stm32g4xx_ll_ucpd.h ****   */
1174:Drivers/STM32G4xx_HAL_Driver/Inc/stm32g4xx_ll_ucpd.h **** __STATIC_INLINE uint32_t LL_UCPD_IsEnableIT_RxOvr(UCPD_TypeDef const *const UCPDx)
1175:Drivers/STM32G4xx_HAL_Driver/Inc/stm32g4xx_ll_ucpd.h **** {
1176:Drivers/STM32G4xx_HAL_Driver/Inc/stm32g4xx_ll_ucpd.h ****   return ((READ_BIT(UCPDx->IMR, UCPD_IMR_RXOVRIE) == UCPD_IMR_RXOVRIE) ? 1UL : 0UL);
1177:Drivers/STM32G4xx_HAL_Driver/Inc/stm32g4xx_ll_ucpd.h **** }
1178:Drivers/STM32G4xx_HAL_Driver/Inc/stm32g4xx_ll_ucpd.h **** 
1179:Drivers/STM32G4xx_HAL_Driver/Inc/stm32g4xx_ll_ucpd.h **** /**
1180:Drivers/STM32G4xx_HAL_Driver/Inc/stm32g4xx_ll_ucpd.h ****   * @brief  Check if Rx hard resrt interrupt enabled
1181:Drivers/STM32G4xx_HAL_Driver/Inc/stm32g4xx_ll_ucpd.h ****   * @rmtoll IMR          RXHRSTDETIE         LL_UCPD_IsEnableIT_RxHRST
1182:Drivers/STM32G4xx_HAL_Driver/Inc/stm32g4xx_ll_ucpd.h ****   * @param  UCPDx UCPD Instance
1183:Drivers/STM32G4xx_HAL_Driver/Inc/stm32g4xx_ll_ucpd.h ****   * @retval State of bit (1 or 0).
1184:Drivers/STM32G4xx_HAL_Driver/Inc/stm32g4xx_ll_ucpd.h ****   */
1185:Drivers/STM32G4xx_HAL_Driver/Inc/stm32g4xx_ll_ucpd.h **** __STATIC_INLINE uint32_t LL_UCPD_IsEnableIT_RxHRST(UCPD_TypeDef const *const UCPDx)
1186:Drivers/STM32G4xx_HAL_Driver/Inc/stm32g4xx_ll_ucpd.h **** {
1187:Drivers/STM32G4xx_HAL_Driver/Inc/stm32g4xx_ll_ucpd.h ****   return ((READ_BIT(UCPDx->IMR, UCPD_IMR_RXHRSTDETIE) == UCPD_IMR_RXHRSTDETIE) ? 1UL : 0UL);
1188:Drivers/STM32G4xx_HAL_Driver/Inc/stm32g4xx_ll_ucpd.h **** }
1189:Drivers/STM32G4xx_HAL_Driver/Inc/stm32g4xx_ll_ucpd.h **** 
1190:Drivers/STM32G4xx_HAL_Driver/Inc/stm32g4xx_ll_ucpd.h **** /**
ARM GAS  /var/folders/kd/c99kx6qx51n19rszfxl6vhn80000gp/T//ccdYvVMp.s 			page 27


1191:Drivers/STM32G4xx_HAL_Driver/Inc/stm32g4xx_ll_ucpd.h ****   * @brief  Check if Rx orderset interrupt enabled
1192:Drivers/STM32G4xx_HAL_Driver/Inc/stm32g4xx_ll_ucpd.h ****   * @rmtoll IMR          RXORDDETIE         LL_UCPD_IsEnableIT_RxOrderSet
1193:Drivers/STM32G4xx_HAL_Driver/Inc/stm32g4xx_ll_ucpd.h ****   * @param  UCPDx UCPD Instance
1194:Drivers/STM32G4xx_HAL_Driver/Inc/stm32g4xx_ll_ucpd.h ****   * @retval State of bit (1 or 0).
1195:Drivers/STM32G4xx_HAL_Driver/Inc/stm32g4xx_ll_ucpd.h ****   */
1196:Drivers/STM32G4xx_HAL_Driver/Inc/stm32g4xx_ll_ucpd.h **** __STATIC_INLINE uint32_t LL_UCPD_IsEnableIT_RxOrderSet(UCPD_TypeDef const *const UCPDx)
1197:Drivers/STM32G4xx_HAL_Driver/Inc/stm32g4xx_ll_ucpd.h **** {
1198:Drivers/STM32G4xx_HAL_Driver/Inc/stm32g4xx_ll_ucpd.h ****   return ((READ_BIT(UCPDx->IMR, UCPD_IMR_RXORDDETIE) == UCPD_IMR_RXORDDETIE) ? 1UL : 0UL);
1199:Drivers/STM32G4xx_HAL_Driver/Inc/stm32g4xx_ll_ucpd.h **** }
1200:Drivers/STM32G4xx_HAL_Driver/Inc/stm32g4xx_ll_ucpd.h **** 
1201:Drivers/STM32G4xx_HAL_Driver/Inc/stm32g4xx_ll_ucpd.h **** /**
1202:Drivers/STM32G4xx_HAL_Driver/Inc/stm32g4xx_ll_ucpd.h ****   * @brief  Check if Rx non empty interrupt enabled
1203:Drivers/STM32G4xx_HAL_Driver/Inc/stm32g4xx_ll_ucpd.h ****   * @rmtoll IMR          RXNEIE         LL_UCPD_IsEnableIT_RxNE
1204:Drivers/STM32G4xx_HAL_Driver/Inc/stm32g4xx_ll_ucpd.h ****   * @param  UCPDx UCPD Instance
1205:Drivers/STM32G4xx_HAL_Driver/Inc/stm32g4xx_ll_ucpd.h ****   * @retval State of bit (1 or 0).
1206:Drivers/STM32G4xx_HAL_Driver/Inc/stm32g4xx_ll_ucpd.h ****   */
1207:Drivers/STM32G4xx_HAL_Driver/Inc/stm32g4xx_ll_ucpd.h **** __STATIC_INLINE uint32_t LL_UCPD_IsEnableIT_RxNE(UCPD_TypeDef const *const UCPDx)
1208:Drivers/STM32G4xx_HAL_Driver/Inc/stm32g4xx_ll_ucpd.h **** {
1209:Drivers/STM32G4xx_HAL_Driver/Inc/stm32g4xx_ll_ucpd.h ****   return ((READ_BIT(UCPDx->IMR, UCPD_IMR_RXNEIE) == UCPD_IMR_RXNEIE) ? 1UL : 0UL);
1210:Drivers/STM32G4xx_HAL_Driver/Inc/stm32g4xx_ll_ucpd.h **** }
1211:Drivers/STM32G4xx_HAL_Driver/Inc/stm32g4xx_ll_ucpd.h **** 
1212:Drivers/STM32G4xx_HAL_Driver/Inc/stm32g4xx_ll_ucpd.h **** /**
1213:Drivers/STM32G4xx_HAL_Driver/Inc/stm32g4xx_ll_ucpd.h ****   * @brief  Check if TX underrun interrupt enabled
1214:Drivers/STM32G4xx_HAL_Driver/Inc/stm32g4xx_ll_ucpd.h ****   * @rmtoll IMR          TXUNDIE         LL_UCPD_IsEnableIT_TxUND
1215:Drivers/STM32G4xx_HAL_Driver/Inc/stm32g4xx_ll_ucpd.h ****   * @param  UCPDx UCPD Instance
1216:Drivers/STM32G4xx_HAL_Driver/Inc/stm32g4xx_ll_ucpd.h ****   * @retval State of bit (1 or 0).
1217:Drivers/STM32G4xx_HAL_Driver/Inc/stm32g4xx_ll_ucpd.h ****   */
1218:Drivers/STM32G4xx_HAL_Driver/Inc/stm32g4xx_ll_ucpd.h **** __STATIC_INLINE uint32_t LL_UCPD_IsEnableIT_TxUND(UCPD_TypeDef const *const UCPDx)
1219:Drivers/STM32G4xx_HAL_Driver/Inc/stm32g4xx_ll_ucpd.h **** {
1220:Drivers/STM32G4xx_HAL_Driver/Inc/stm32g4xx_ll_ucpd.h ****   return ((READ_BIT(UCPDx->IMR, UCPD_IMR_TXUNDIE) == UCPD_IMR_TXUNDIE) ? 1UL : 0UL);
1221:Drivers/STM32G4xx_HAL_Driver/Inc/stm32g4xx_ll_ucpd.h **** }
1222:Drivers/STM32G4xx_HAL_Driver/Inc/stm32g4xx_ll_ucpd.h **** 
1223:Drivers/STM32G4xx_HAL_Driver/Inc/stm32g4xx_ll_ucpd.h **** /**
1224:Drivers/STM32G4xx_HAL_Driver/Inc/stm32g4xx_ll_ucpd.h ****   * @brief  Check if hard reset sent interrupt enabled
1225:Drivers/STM32G4xx_HAL_Driver/Inc/stm32g4xx_ll_ucpd.h ****   * @rmtoll IMR          HRSTSENTIE         LL_UCPD_IsEnableIT_TxHRSTSENT
1226:Drivers/STM32G4xx_HAL_Driver/Inc/stm32g4xx_ll_ucpd.h ****   * @param  UCPDx UCPD Instance
1227:Drivers/STM32G4xx_HAL_Driver/Inc/stm32g4xx_ll_ucpd.h ****   * @retval State of bit (1 or 0).
1228:Drivers/STM32G4xx_HAL_Driver/Inc/stm32g4xx_ll_ucpd.h ****   */
1229:Drivers/STM32G4xx_HAL_Driver/Inc/stm32g4xx_ll_ucpd.h **** __STATIC_INLINE uint32_t LL_UCPD_IsEnableIT_TxHRSTSENT(UCPD_TypeDef const *const UCPDx)
1230:Drivers/STM32G4xx_HAL_Driver/Inc/stm32g4xx_ll_ucpd.h **** {
1231:Drivers/STM32G4xx_HAL_Driver/Inc/stm32g4xx_ll_ucpd.h ****   return ((READ_BIT(UCPDx->IMR, UCPD_IMR_HRSTSENTIE) == UCPD_IMR_HRSTSENTIE) ? 1UL : 0UL);
1232:Drivers/STM32G4xx_HAL_Driver/Inc/stm32g4xx_ll_ucpd.h **** }
1233:Drivers/STM32G4xx_HAL_Driver/Inc/stm32g4xx_ll_ucpd.h **** 
1234:Drivers/STM32G4xx_HAL_Driver/Inc/stm32g4xx_ll_ucpd.h **** /**
1235:Drivers/STM32G4xx_HAL_Driver/Inc/stm32g4xx_ll_ucpd.h ****   * @brief  Check if hard reset discard interrupt enabled
1236:Drivers/STM32G4xx_HAL_Driver/Inc/stm32g4xx_ll_ucpd.h ****   * @rmtoll IMR          HRSTDISCIE         LL_UCPD_IsEnableIT_TxHRSTDISC
1237:Drivers/STM32G4xx_HAL_Driver/Inc/stm32g4xx_ll_ucpd.h ****   * @param  UCPDx UCPD Instance
1238:Drivers/STM32G4xx_HAL_Driver/Inc/stm32g4xx_ll_ucpd.h ****   * @retval State of bit (1 or 0).
1239:Drivers/STM32G4xx_HAL_Driver/Inc/stm32g4xx_ll_ucpd.h ****   */
1240:Drivers/STM32G4xx_HAL_Driver/Inc/stm32g4xx_ll_ucpd.h **** __STATIC_INLINE uint32_t LL_UCPD_IsEnableIT_TxHRSTDISC(UCPD_TypeDef const *const UCPDx)
1241:Drivers/STM32G4xx_HAL_Driver/Inc/stm32g4xx_ll_ucpd.h **** {
1242:Drivers/STM32G4xx_HAL_Driver/Inc/stm32g4xx_ll_ucpd.h ****   return ((READ_BIT(UCPDx->IMR, UCPD_IMR_HRSTDISCIE) == UCPD_IMR_HRSTDISCIE) ? 1UL : 0UL);
1243:Drivers/STM32G4xx_HAL_Driver/Inc/stm32g4xx_ll_ucpd.h **** }
1244:Drivers/STM32G4xx_HAL_Driver/Inc/stm32g4xx_ll_ucpd.h **** 
1245:Drivers/STM32G4xx_HAL_Driver/Inc/stm32g4xx_ll_ucpd.h **** /**
1246:Drivers/STM32G4xx_HAL_Driver/Inc/stm32g4xx_ll_ucpd.h ****   * @brief  Check if Tx message abort interrupt enabled
1247:Drivers/STM32G4xx_HAL_Driver/Inc/stm32g4xx_ll_ucpd.h ****   * @rmtoll IMR          TXMSGABTIE         LL_UCPD_IsEnableIT_TxMSGABT
ARM GAS  /var/folders/kd/c99kx6qx51n19rszfxl6vhn80000gp/T//ccdYvVMp.s 			page 28


1248:Drivers/STM32G4xx_HAL_Driver/Inc/stm32g4xx_ll_ucpd.h ****   * @param  UCPDx UCPD Instance
1249:Drivers/STM32G4xx_HAL_Driver/Inc/stm32g4xx_ll_ucpd.h ****   * @retval State of bit (1 or 0).
1250:Drivers/STM32G4xx_HAL_Driver/Inc/stm32g4xx_ll_ucpd.h ****   */
1251:Drivers/STM32G4xx_HAL_Driver/Inc/stm32g4xx_ll_ucpd.h **** __STATIC_INLINE uint32_t LL_UCPD_IsEnableIT_TxMSGABT(UCPD_TypeDef const *const UCPDx)
1252:Drivers/STM32G4xx_HAL_Driver/Inc/stm32g4xx_ll_ucpd.h **** {
1253:Drivers/STM32G4xx_HAL_Driver/Inc/stm32g4xx_ll_ucpd.h ****   return ((READ_BIT(UCPDx->IMR, UCPD_IMR_TXMSGABTIE) == UCPD_IMR_TXMSGABTIE) ? 1UL : 0UL);
1254:Drivers/STM32G4xx_HAL_Driver/Inc/stm32g4xx_ll_ucpd.h **** }
1255:Drivers/STM32G4xx_HAL_Driver/Inc/stm32g4xx_ll_ucpd.h **** 
1256:Drivers/STM32G4xx_HAL_Driver/Inc/stm32g4xx_ll_ucpd.h **** /**
1257:Drivers/STM32G4xx_HAL_Driver/Inc/stm32g4xx_ll_ucpd.h ****   * @brief  Check if Tx message sent interrupt enabled
1258:Drivers/STM32G4xx_HAL_Driver/Inc/stm32g4xx_ll_ucpd.h ****   * @rmtoll IMR          TXMSGSENTIE         LL_UCPD_IsEnableIT_TxMSGSENT
1259:Drivers/STM32G4xx_HAL_Driver/Inc/stm32g4xx_ll_ucpd.h ****   * @param  UCPDx UCPD Instance
1260:Drivers/STM32G4xx_HAL_Driver/Inc/stm32g4xx_ll_ucpd.h ****   * @retval State of bit (1 or 0).
1261:Drivers/STM32G4xx_HAL_Driver/Inc/stm32g4xx_ll_ucpd.h ****   */
1262:Drivers/STM32G4xx_HAL_Driver/Inc/stm32g4xx_ll_ucpd.h **** __STATIC_INLINE uint32_t LL_UCPD_IsEnableIT_TxMSGSENT(UCPD_TypeDef const *const UCPDx)
1263:Drivers/STM32G4xx_HAL_Driver/Inc/stm32g4xx_ll_ucpd.h **** {
1264:Drivers/STM32G4xx_HAL_Driver/Inc/stm32g4xx_ll_ucpd.h ****   return ((READ_BIT(UCPDx->IMR, UCPD_IMR_TXMSGSENTIE) == UCPD_IMR_TXMSGSENTIE) ? 1UL : 0UL);
1265:Drivers/STM32G4xx_HAL_Driver/Inc/stm32g4xx_ll_ucpd.h **** }
1266:Drivers/STM32G4xx_HAL_Driver/Inc/stm32g4xx_ll_ucpd.h **** 
1267:Drivers/STM32G4xx_HAL_Driver/Inc/stm32g4xx_ll_ucpd.h **** /**
1268:Drivers/STM32G4xx_HAL_Driver/Inc/stm32g4xx_ll_ucpd.h ****   * @brief  Check if Tx message discarded interrupt enabled
1269:Drivers/STM32G4xx_HAL_Driver/Inc/stm32g4xx_ll_ucpd.h ****   * @rmtoll IMR          TXMSGDISCIE         LL_UCPD_IsEnableIT_TxMSGDISC
1270:Drivers/STM32G4xx_HAL_Driver/Inc/stm32g4xx_ll_ucpd.h ****   * @param  UCPDx UCPD Instance
1271:Drivers/STM32G4xx_HAL_Driver/Inc/stm32g4xx_ll_ucpd.h ****   * @retval State of bit (1 or 0).
1272:Drivers/STM32G4xx_HAL_Driver/Inc/stm32g4xx_ll_ucpd.h ****   */
1273:Drivers/STM32G4xx_HAL_Driver/Inc/stm32g4xx_ll_ucpd.h **** __STATIC_INLINE uint32_t LL_UCPD_IsEnableIT_TxMSGDISC(UCPD_TypeDef const *const UCPDx)
1274:Drivers/STM32G4xx_HAL_Driver/Inc/stm32g4xx_ll_ucpd.h **** {
1275:Drivers/STM32G4xx_HAL_Driver/Inc/stm32g4xx_ll_ucpd.h ****   return ((READ_BIT(UCPDx->IMR, UCPD_IMR_TXMSGDISCIE) == UCPD_IMR_TXMSGDISCIE) ? 1UL : 0UL);
1276:Drivers/STM32G4xx_HAL_Driver/Inc/stm32g4xx_ll_ucpd.h **** }
1277:Drivers/STM32G4xx_HAL_Driver/Inc/stm32g4xx_ll_ucpd.h **** 
1278:Drivers/STM32G4xx_HAL_Driver/Inc/stm32g4xx_ll_ucpd.h **** /**
1279:Drivers/STM32G4xx_HAL_Driver/Inc/stm32g4xx_ll_ucpd.h ****   * @brief  Check if Tx data receive interrupt enabled
1280:Drivers/STM32G4xx_HAL_Driver/Inc/stm32g4xx_ll_ucpd.h ****   * @rmtoll IMR          TXISIE         LL_UCPD_IsEnableIT_TxIS
1281:Drivers/STM32G4xx_HAL_Driver/Inc/stm32g4xx_ll_ucpd.h ****   * @param  UCPDx UCPD Instance
1282:Drivers/STM32G4xx_HAL_Driver/Inc/stm32g4xx_ll_ucpd.h ****   * @retval State of bit (1 or 0).
1283:Drivers/STM32G4xx_HAL_Driver/Inc/stm32g4xx_ll_ucpd.h ****   */
1284:Drivers/STM32G4xx_HAL_Driver/Inc/stm32g4xx_ll_ucpd.h **** __STATIC_INLINE uint32_t LL_UCPD_IsEnableIT_TxIS(UCPD_TypeDef const *const UCPDx)
1285:Drivers/STM32G4xx_HAL_Driver/Inc/stm32g4xx_ll_ucpd.h **** {
1286:Drivers/STM32G4xx_HAL_Driver/Inc/stm32g4xx_ll_ucpd.h ****   return ((READ_BIT(UCPDx->IMR, UCPD_IMR_TXISIE) == UCPD_IMR_TXISIE) ? 1UL : 0UL);
1287:Drivers/STM32G4xx_HAL_Driver/Inc/stm32g4xx_ll_ucpd.h **** }
1288:Drivers/STM32G4xx_HAL_Driver/Inc/stm32g4xx_ll_ucpd.h **** 
1289:Drivers/STM32G4xx_HAL_Driver/Inc/stm32g4xx_ll_ucpd.h **** /**
1290:Drivers/STM32G4xx_HAL_Driver/Inc/stm32g4xx_ll_ucpd.h ****   * @}
1291:Drivers/STM32G4xx_HAL_Driver/Inc/stm32g4xx_ll_ucpd.h ****   */
1292:Drivers/STM32G4xx_HAL_Driver/Inc/stm32g4xx_ll_ucpd.h **** 
1293:Drivers/STM32G4xx_HAL_Driver/Inc/stm32g4xx_ll_ucpd.h **** /** @defgroup UCPD_LL_EF_IT_Clear Interrupt Clear
1294:Drivers/STM32G4xx_HAL_Driver/Inc/stm32g4xx_ll_ucpd.h ****   * @{
1295:Drivers/STM32G4xx_HAL_Driver/Inc/stm32g4xx_ll_ucpd.h ****   */
1296:Drivers/STM32G4xx_HAL_Driver/Inc/stm32g4xx_ll_ucpd.h **** 
1297:Drivers/STM32G4xx_HAL_Driver/Inc/stm32g4xx_ll_ucpd.h **** /**
1298:Drivers/STM32G4xx_HAL_Driver/Inc/stm32g4xx_ll_ucpd.h ****   * @brief  Clear FRS interrupt
1299:Drivers/STM32G4xx_HAL_Driver/Inc/stm32g4xx_ll_ucpd.h ****   * @rmtoll ICR          FRSEVTIE         LL_UCPD_ClearFlag_FRS
1300:Drivers/STM32G4xx_HAL_Driver/Inc/stm32g4xx_ll_ucpd.h ****   * @param  UCPDx UCPD Instance
1301:Drivers/STM32G4xx_HAL_Driver/Inc/stm32g4xx_ll_ucpd.h ****   * @retval None
1302:Drivers/STM32G4xx_HAL_Driver/Inc/stm32g4xx_ll_ucpd.h ****   */
1303:Drivers/STM32G4xx_HAL_Driver/Inc/stm32g4xx_ll_ucpd.h **** __STATIC_INLINE void LL_UCPD_ClearFlag_FRS(UCPD_TypeDef *UCPDx)
1304:Drivers/STM32G4xx_HAL_Driver/Inc/stm32g4xx_ll_ucpd.h **** {
ARM GAS  /var/folders/kd/c99kx6qx51n19rszfxl6vhn80000gp/T//ccdYvVMp.s 			page 29


1305:Drivers/STM32G4xx_HAL_Driver/Inc/stm32g4xx_ll_ucpd.h ****   SET_BIT(UCPDx->ICR, UCPD_ICR_FRSEVTCF);
1306:Drivers/STM32G4xx_HAL_Driver/Inc/stm32g4xx_ll_ucpd.h **** }
1307:Drivers/STM32G4xx_HAL_Driver/Inc/stm32g4xx_ll_ucpd.h **** 
1308:Drivers/STM32G4xx_HAL_Driver/Inc/stm32g4xx_ll_ucpd.h **** /**
1309:Drivers/STM32G4xx_HAL_Driver/Inc/stm32g4xx_ll_ucpd.h ****   * @brief  Clear type c event on CC2
1310:Drivers/STM32G4xx_HAL_Driver/Inc/stm32g4xx_ll_ucpd.h ****   * @rmtoll IIMR          TYPECEVT2IE        LL_UCPD_ClearFlag_TypeCEventCC2
1311:Drivers/STM32G4xx_HAL_Driver/Inc/stm32g4xx_ll_ucpd.h ****   * @param  UCPDx UCPD Instance
1312:Drivers/STM32G4xx_HAL_Driver/Inc/stm32g4xx_ll_ucpd.h ****   * @retval None
1313:Drivers/STM32G4xx_HAL_Driver/Inc/stm32g4xx_ll_ucpd.h ****   */
1314:Drivers/STM32G4xx_HAL_Driver/Inc/stm32g4xx_ll_ucpd.h **** __STATIC_INLINE void LL_UCPD_ClearFlag_TypeCEventCC2(UCPD_TypeDef *UCPDx)
1315:Drivers/STM32G4xx_HAL_Driver/Inc/stm32g4xx_ll_ucpd.h **** {
1316:Drivers/STM32G4xx_HAL_Driver/Inc/stm32g4xx_ll_ucpd.h ****   SET_BIT(UCPDx->ICR, UCPD_ICR_TYPECEVT2CF);
1317:Drivers/STM32G4xx_HAL_Driver/Inc/stm32g4xx_ll_ucpd.h **** }
1318:Drivers/STM32G4xx_HAL_Driver/Inc/stm32g4xx_ll_ucpd.h **** 
1319:Drivers/STM32G4xx_HAL_Driver/Inc/stm32g4xx_ll_ucpd.h **** /**
1320:Drivers/STM32G4xx_HAL_Driver/Inc/stm32g4xx_ll_ucpd.h ****   * @brief  Clear type c event on CC1
1321:Drivers/STM32G4xx_HAL_Driver/Inc/stm32g4xx_ll_ucpd.h ****   * @rmtoll IIMR          TYPECEVT1IE        LL_UCPD_ClearFlag_TypeCEventCC1
1322:Drivers/STM32G4xx_HAL_Driver/Inc/stm32g4xx_ll_ucpd.h ****   * @param  UCPDx UCPD Instance
1323:Drivers/STM32G4xx_HAL_Driver/Inc/stm32g4xx_ll_ucpd.h ****   * @retval None
1324:Drivers/STM32G4xx_HAL_Driver/Inc/stm32g4xx_ll_ucpd.h ****   */
1325:Drivers/STM32G4xx_HAL_Driver/Inc/stm32g4xx_ll_ucpd.h **** __STATIC_INLINE void LL_UCPD_ClearFlag_TypeCEventCC1(UCPD_TypeDef *UCPDx)
 109              		.loc 2 1325 22 view .LVU33
 110              	.LBB27:
1326:Drivers/STM32G4xx_HAL_Driver/Inc/stm32g4xx_ll_ucpd.h **** {
1327:Drivers/STM32G4xx_HAL_Driver/Inc/stm32g4xx_ll_ucpd.h ****   SET_BIT(UCPDx->ICR, UCPD_ICR_TYPECEVT1CF);
 111              		.loc 2 1327 3 view .LVU34
 112 0066 AB69     		ldr	r3, [r5, #24]
 113              	.LVL4:
 114              		.loc 2 1327 3 is_stmt 0 view .LVU35
 115 0068 43F48043 		orr	r3, r3, #16384
 116 006c AB61     		str	r3, [r5, #24]
 117              	.LVL5:
 118              		.loc 2 1327 3 view .LVU36
 119              	.LBE27:
 120              	.LBE26:
 186:Middlewares/ST/STM32_USBPD_Library/Devices/STM32G4XX/src/usbpd_hw_if_it.c ****       LL_UCPD_ClearFlag_TypeCEventCC2(hucpd);
 121              		.loc 1 186 7 is_stmt 1 view .LVU37
 122              	.LBB28:
 123              	.LBI28:
1314:Drivers/STM32G4xx_HAL_Driver/Inc/stm32g4xx_ll_ucpd.h **** {
 124              		.loc 2 1314 22 view .LVU38
 125              	.LBB29:
1316:Drivers/STM32G4xx_HAL_Driver/Inc/stm32g4xx_ll_ucpd.h **** }
 126              		.loc 2 1316 3 view .LVU39
 127 006e AB69     		ldr	r3, [r5, #24]
 128 0070 43F40043 		orr	r3, r3, #32768
 129 0074 AB61     		str	r3, [r5, #24]
 130              	.LVL6:
1316:Drivers/STM32G4xx_HAL_Driver/Inc/stm32g4xx_ll_ucpd.h **** }
 131              		.loc 2 1316 3 is_stmt 0 view .LVU40
 132              	.LBE29:
 133              	.LBE28:
 187:Middlewares/ST/STM32_USBPD_Library/Devices/STM32G4XX/src/usbpd_hw_if_it.c ****       Ports[PortNum].USBPD_CAD_WakeUp();
 134              		.loc 1 187 7 is_stmt 1 view .LVU41
 135              		.loc 1 187 21 is_stmt 0 view .LVU42
 136 0076 C0EB0014 		rsb	r4, r0, r0, lsl #4
 137 007a 784B     		ldr	r3, .L31
ARM GAS  /var/folders/kd/c99kx6qx51n19rszfxl6vhn80000gp/T//ccdYvVMp.s 			page 30


 138 007c 03EB8404 		add	r4, r3, r4, lsl #2
 139 0080 E36A     		ldr	r3, [r4, #44]
 140              		.loc 1 187 7 view .LVU43
 141 0082 9847     		blx	r3
 142              	.LVL7:
 188:Middlewares/ST/STM32_USBPD_Library/Devices/STM32G4XX/src/usbpd_hw_if_it.c ****       /* Wakeup CAD to check the detection event */
 189:Middlewares/ST/STM32_USBPD_Library/Devices/STM32G4XX/src/usbpd_hw_if_it.c ****       return;
 143              		.loc 1 189 7 is_stmt 1 view .LVU44
 144 0084 20E0     		b	.L1
 145              	.LVL8:
 146              	.L20:
  56:Middlewares/ST/STM32_USBPD_Library/Devices/STM32G4XX/src/usbpd_hw_if_it.c ****       CLEAR_BIT(Ports[PortNum].hdmatx->CCR, DMA_CCR_EN);
 147              		.loc 1 56 7 view .LVU45
 148              	.LBB30:
 149              	.LBI30:
1328:Drivers/STM32G4xx_HAL_Driver/Inc/stm32g4xx_ll_ucpd.h **** }
1329:Drivers/STM32G4xx_HAL_Driver/Inc/stm32g4xx_ll_ucpd.h **** 
1330:Drivers/STM32G4xx_HAL_Driver/Inc/stm32g4xx_ll_ucpd.h **** /**
1331:Drivers/STM32G4xx_HAL_Driver/Inc/stm32g4xx_ll_ucpd.h ****   * @brief  Clear Rx message end interrupt
1332:Drivers/STM32G4xx_HAL_Driver/Inc/stm32g4xx_ll_ucpd.h ****   * @rmtoll ICR          RXMSGENDIE         LL_UCPD_ClearFlag_RxMsgEnd
1333:Drivers/STM32G4xx_HAL_Driver/Inc/stm32g4xx_ll_ucpd.h ****   * @param  UCPDx UCPD Instance
1334:Drivers/STM32G4xx_HAL_Driver/Inc/stm32g4xx_ll_ucpd.h ****   * @retval None
1335:Drivers/STM32G4xx_HAL_Driver/Inc/stm32g4xx_ll_ucpd.h ****   */
1336:Drivers/STM32G4xx_HAL_Driver/Inc/stm32g4xx_ll_ucpd.h **** __STATIC_INLINE void LL_UCPD_ClearFlag_RxMsgEnd(UCPD_TypeDef *UCPDx)
1337:Drivers/STM32G4xx_HAL_Driver/Inc/stm32g4xx_ll_ucpd.h **** {
1338:Drivers/STM32G4xx_HAL_Driver/Inc/stm32g4xx_ll_ucpd.h ****   SET_BIT(UCPDx->ICR, UCPD_ICR_RXMSGENDCF);
1339:Drivers/STM32G4xx_HAL_Driver/Inc/stm32g4xx_ll_ucpd.h **** }
1340:Drivers/STM32G4xx_HAL_Driver/Inc/stm32g4xx_ll_ucpd.h **** 
1341:Drivers/STM32G4xx_HAL_Driver/Inc/stm32g4xx_ll_ucpd.h **** /**
1342:Drivers/STM32G4xx_HAL_Driver/Inc/stm32g4xx_ll_ucpd.h ****   * @brief  Clear Rx overrun interrupt
1343:Drivers/STM32G4xx_HAL_Driver/Inc/stm32g4xx_ll_ucpd.h ****   * @rmtoll ICR          RXOVRIE         LL_UCPD_ClearFlag_RxOvr
1344:Drivers/STM32G4xx_HAL_Driver/Inc/stm32g4xx_ll_ucpd.h ****   * @param  UCPDx UCPD Instance
1345:Drivers/STM32G4xx_HAL_Driver/Inc/stm32g4xx_ll_ucpd.h ****   * @retval None
1346:Drivers/STM32G4xx_HAL_Driver/Inc/stm32g4xx_ll_ucpd.h ****   */
1347:Drivers/STM32G4xx_HAL_Driver/Inc/stm32g4xx_ll_ucpd.h **** __STATIC_INLINE void LL_UCPD_ClearFlag_RxOvr(UCPD_TypeDef *UCPDx)
1348:Drivers/STM32G4xx_HAL_Driver/Inc/stm32g4xx_ll_ucpd.h **** {
1349:Drivers/STM32G4xx_HAL_Driver/Inc/stm32g4xx_ll_ucpd.h ****   SET_BIT(UCPDx->ICR, UCPD_ICR_RXOVRCF);
1350:Drivers/STM32G4xx_HAL_Driver/Inc/stm32g4xx_ll_ucpd.h **** }
1351:Drivers/STM32G4xx_HAL_Driver/Inc/stm32g4xx_ll_ucpd.h **** 
1352:Drivers/STM32G4xx_HAL_Driver/Inc/stm32g4xx_ll_ucpd.h **** /**
1353:Drivers/STM32G4xx_HAL_Driver/Inc/stm32g4xx_ll_ucpd.h ****   * @brief  Clear Rx hard resrt interrupt
1354:Drivers/STM32G4xx_HAL_Driver/Inc/stm32g4xx_ll_ucpd.h ****   * @rmtoll ICR          RXHRSTDETIE         LL_UCPD_ClearFlag_RxHRST
1355:Drivers/STM32G4xx_HAL_Driver/Inc/stm32g4xx_ll_ucpd.h ****   * @param  UCPDx UCPD Instance
1356:Drivers/STM32G4xx_HAL_Driver/Inc/stm32g4xx_ll_ucpd.h ****   * @retval None
1357:Drivers/STM32G4xx_HAL_Driver/Inc/stm32g4xx_ll_ucpd.h ****   */
1358:Drivers/STM32G4xx_HAL_Driver/Inc/stm32g4xx_ll_ucpd.h **** __STATIC_INLINE void LL_UCPD_ClearFlag_RxHRST(UCPD_TypeDef *UCPDx)
1359:Drivers/STM32G4xx_HAL_Driver/Inc/stm32g4xx_ll_ucpd.h **** {
1360:Drivers/STM32G4xx_HAL_Driver/Inc/stm32g4xx_ll_ucpd.h ****   SET_BIT(UCPDx->ICR, UCPD_ICR_RXHRSTDETCF);
1361:Drivers/STM32G4xx_HAL_Driver/Inc/stm32g4xx_ll_ucpd.h **** }
1362:Drivers/STM32G4xx_HAL_Driver/Inc/stm32g4xx_ll_ucpd.h **** 
1363:Drivers/STM32G4xx_HAL_Driver/Inc/stm32g4xx_ll_ucpd.h **** /**
1364:Drivers/STM32G4xx_HAL_Driver/Inc/stm32g4xx_ll_ucpd.h ****   * @brief  Clear Rx orderset interrupt
1365:Drivers/STM32G4xx_HAL_Driver/Inc/stm32g4xx_ll_ucpd.h ****   * @rmtoll ICR          RXORDDETIE         LL_UCPD_ClearFlag_RxOrderSet
1366:Drivers/STM32G4xx_HAL_Driver/Inc/stm32g4xx_ll_ucpd.h ****   * @param  UCPDx UCPD Instance
1367:Drivers/STM32G4xx_HAL_Driver/Inc/stm32g4xx_ll_ucpd.h ****   * @retval None
1368:Drivers/STM32G4xx_HAL_Driver/Inc/stm32g4xx_ll_ucpd.h ****   */
1369:Drivers/STM32G4xx_HAL_Driver/Inc/stm32g4xx_ll_ucpd.h **** __STATIC_INLINE void LL_UCPD_ClearFlag_RxOrderSet(UCPD_TypeDef *UCPDx)
ARM GAS  /var/folders/kd/c99kx6qx51n19rszfxl6vhn80000gp/T//ccdYvVMp.s 			page 31


1370:Drivers/STM32G4xx_HAL_Driver/Inc/stm32g4xx_ll_ucpd.h **** {
1371:Drivers/STM32G4xx_HAL_Driver/Inc/stm32g4xx_ll_ucpd.h ****   SET_BIT(UCPDx->ICR, UCPD_ICR_RXORDDETCF);
1372:Drivers/STM32G4xx_HAL_Driver/Inc/stm32g4xx_ll_ucpd.h **** }
1373:Drivers/STM32G4xx_HAL_Driver/Inc/stm32g4xx_ll_ucpd.h **** 
1374:Drivers/STM32G4xx_HAL_Driver/Inc/stm32g4xx_ll_ucpd.h **** /**
1375:Drivers/STM32G4xx_HAL_Driver/Inc/stm32g4xx_ll_ucpd.h ****   * @brief  Clear TX underrun interrupt
1376:Drivers/STM32G4xx_HAL_Driver/Inc/stm32g4xx_ll_ucpd.h ****   * @rmtoll ICR          TXUNDIE         LL_UCPD_ClearFlag_TxUND
1377:Drivers/STM32G4xx_HAL_Driver/Inc/stm32g4xx_ll_ucpd.h ****   * @param  UCPDx UCPD Instance
1378:Drivers/STM32G4xx_HAL_Driver/Inc/stm32g4xx_ll_ucpd.h ****   * @retval None
1379:Drivers/STM32G4xx_HAL_Driver/Inc/stm32g4xx_ll_ucpd.h ****   */
1380:Drivers/STM32G4xx_HAL_Driver/Inc/stm32g4xx_ll_ucpd.h **** __STATIC_INLINE void LL_UCPD_ClearFlag_TxUND(UCPD_TypeDef *UCPDx)
1381:Drivers/STM32G4xx_HAL_Driver/Inc/stm32g4xx_ll_ucpd.h **** {
1382:Drivers/STM32G4xx_HAL_Driver/Inc/stm32g4xx_ll_ucpd.h ****   SET_BIT(UCPDx->ICR, UCPD_ICR_TXUNDCF);
1383:Drivers/STM32G4xx_HAL_Driver/Inc/stm32g4xx_ll_ucpd.h **** }
1384:Drivers/STM32G4xx_HAL_Driver/Inc/stm32g4xx_ll_ucpd.h **** 
1385:Drivers/STM32G4xx_HAL_Driver/Inc/stm32g4xx_ll_ucpd.h **** /**
1386:Drivers/STM32G4xx_HAL_Driver/Inc/stm32g4xx_ll_ucpd.h ****   * @brief  Clear hard reset sent interrupt
1387:Drivers/STM32G4xx_HAL_Driver/Inc/stm32g4xx_ll_ucpd.h ****   * @rmtoll ICR          HRSTSENTIE         LL_UCPD_ClearFlag_TxHRSTSENT
1388:Drivers/STM32G4xx_HAL_Driver/Inc/stm32g4xx_ll_ucpd.h ****   * @param  UCPDx UCPD Instance
1389:Drivers/STM32G4xx_HAL_Driver/Inc/stm32g4xx_ll_ucpd.h ****   * @retval None
1390:Drivers/STM32G4xx_HAL_Driver/Inc/stm32g4xx_ll_ucpd.h ****   */
1391:Drivers/STM32G4xx_HAL_Driver/Inc/stm32g4xx_ll_ucpd.h **** __STATIC_INLINE void LL_UCPD_ClearFlag_TxHRSTSENT(UCPD_TypeDef *UCPDx)
1392:Drivers/STM32G4xx_HAL_Driver/Inc/stm32g4xx_ll_ucpd.h **** {
1393:Drivers/STM32G4xx_HAL_Driver/Inc/stm32g4xx_ll_ucpd.h ****   SET_BIT(UCPDx->ICR, UCPD_ICR_HRSTSENTCF);
1394:Drivers/STM32G4xx_HAL_Driver/Inc/stm32g4xx_ll_ucpd.h **** }
1395:Drivers/STM32G4xx_HAL_Driver/Inc/stm32g4xx_ll_ucpd.h **** 
1396:Drivers/STM32G4xx_HAL_Driver/Inc/stm32g4xx_ll_ucpd.h **** /**
1397:Drivers/STM32G4xx_HAL_Driver/Inc/stm32g4xx_ll_ucpd.h ****   * @brief  Clear hard reset discard interrupt
1398:Drivers/STM32G4xx_HAL_Driver/Inc/stm32g4xx_ll_ucpd.h ****   * @rmtoll ICR          HRSTDISCIE         LL_UCPD_ClearFlag_TxHRSTDISC
1399:Drivers/STM32G4xx_HAL_Driver/Inc/stm32g4xx_ll_ucpd.h ****   * @param  UCPDx UCPD Instance
1400:Drivers/STM32G4xx_HAL_Driver/Inc/stm32g4xx_ll_ucpd.h ****   * @retval None
1401:Drivers/STM32G4xx_HAL_Driver/Inc/stm32g4xx_ll_ucpd.h ****   */
1402:Drivers/STM32G4xx_HAL_Driver/Inc/stm32g4xx_ll_ucpd.h **** __STATIC_INLINE void LL_UCPD_ClearFlag_TxHRSTDISC(UCPD_TypeDef *UCPDx)
1403:Drivers/STM32G4xx_HAL_Driver/Inc/stm32g4xx_ll_ucpd.h **** {
1404:Drivers/STM32G4xx_HAL_Driver/Inc/stm32g4xx_ll_ucpd.h ****   SET_BIT(UCPDx->ICR, UCPD_ICR_HRSTDISCCF);
1405:Drivers/STM32G4xx_HAL_Driver/Inc/stm32g4xx_ll_ucpd.h **** }
1406:Drivers/STM32G4xx_HAL_Driver/Inc/stm32g4xx_ll_ucpd.h **** 
1407:Drivers/STM32G4xx_HAL_Driver/Inc/stm32g4xx_ll_ucpd.h **** /**
1408:Drivers/STM32G4xx_HAL_Driver/Inc/stm32g4xx_ll_ucpd.h ****   * @brief  Clear Tx message abort interrupt
1409:Drivers/STM32G4xx_HAL_Driver/Inc/stm32g4xx_ll_ucpd.h ****   * @rmtoll ICR          TXMSGABTIE         LL_UCPD_ClearFlag_TxMSGABT
1410:Drivers/STM32G4xx_HAL_Driver/Inc/stm32g4xx_ll_ucpd.h ****   * @param  UCPDx UCPD Instance
1411:Drivers/STM32G4xx_HAL_Driver/Inc/stm32g4xx_ll_ucpd.h ****   * @retval None
1412:Drivers/STM32G4xx_HAL_Driver/Inc/stm32g4xx_ll_ucpd.h ****   */
1413:Drivers/STM32G4xx_HAL_Driver/Inc/stm32g4xx_ll_ucpd.h **** __STATIC_INLINE void LL_UCPD_ClearFlag_TxMSGABT(UCPD_TypeDef *UCPDx)
1414:Drivers/STM32G4xx_HAL_Driver/Inc/stm32g4xx_ll_ucpd.h **** {
1415:Drivers/STM32G4xx_HAL_Driver/Inc/stm32g4xx_ll_ucpd.h ****   SET_BIT(UCPDx->ICR, UCPD_ICR_TXMSGABTCF);
1416:Drivers/STM32G4xx_HAL_Driver/Inc/stm32g4xx_ll_ucpd.h **** }
1417:Drivers/STM32G4xx_HAL_Driver/Inc/stm32g4xx_ll_ucpd.h **** 
1418:Drivers/STM32G4xx_HAL_Driver/Inc/stm32g4xx_ll_ucpd.h **** /**
1419:Drivers/STM32G4xx_HAL_Driver/Inc/stm32g4xx_ll_ucpd.h ****   * @brief  Clear Tx message sent interrupt
1420:Drivers/STM32G4xx_HAL_Driver/Inc/stm32g4xx_ll_ucpd.h ****   * @rmtoll ICR          TXMSGSENTIE         LL_UCPD_ClearFlag_TxMSGSENT
1421:Drivers/STM32G4xx_HAL_Driver/Inc/stm32g4xx_ll_ucpd.h ****   * @param  UCPDx UCPD Instance
1422:Drivers/STM32G4xx_HAL_Driver/Inc/stm32g4xx_ll_ucpd.h ****   * @retval None
1423:Drivers/STM32G4xx_HAL_Driver/Inc/stm32g4xx_ll_ucpd.h ****   */
1424:Drivers/STM32G4xx_HAL_Driver/Inc/stm32g4xx_ll_ucpd.h **** __STATIC_INLINE void LL_UCPD_ClearFlag_TxMSGSENT(UCPD_TypeDef *UCPDx)
1425:Drivers/STM32G4xx_HAL_Driver/Inc/stm32g4xx_ll_ucpd.h **** {
1426:Drivers/STM32G4xx_HAL_Driver/Inc/stm32g4xx_ll_ucpd.h ****   SET_BIT(UCPDx->ICR, UCPD_ICR_TXMSGSENTCF);
ARM GAS  /var/folders/kd/c99kx6qx51n19rszfxl6vhn80000gp/T//ccdYvVMp.s 			page 32


1427:Drivers/STM32G4xx_HAL_Driver/Inc/stm32g4xx_ll_ucpd.h **** }
1428:Drivers/STM32G4xx_HAL_Driver/Inc/stm32g4xx_ll_ucpd.h **** 
1429:Drivers/STM32G4xx_HAL_Driver/Inc/stm32g4xx_ll_ucpd.h **** /**
1430:Drivers/STM32G4xx_HAL_Driver/Inc/stm32g4xx_ll_ucpd.h ****   * @brief  Clear Tx message discarded interrupt
1431:Drivers/STM32G4xx_HAL_Driver/Inc/stm32g4xx_ll_ucpd.h ****   * @rmtoll ICR          TXMSGDISCIE         LL_UCPD_ClearFlag_TxMSGDISC
1432:Drivers/STM32G4xx_HAL_Driver/Inc/stm32g4xx_ll_ucpd.h ****   * @param  UCPDx UCPD Instance
1433:Drivers/STM32G4xx_HAL_Driver/Inc/stm32g4xx_ll_ucpd.h ****   * @retval None
1434:Drivers/STM32G4xx_HAL_Driver/Inc/stm32g4xx_ll_ucpd.h ****   */
1435:Drivers/STM32G4xx_HAL_Driver/Inc/stm32g4xx_ll_ucpd.h **** __STATIC_INLINE void LL_UCPD_ClearFlag_TxMSGDISC(UCPD_TypeDef *UCPDx)
 150              		.loc 2 1435 22 view .LVU46
 151              	.LBB31:
1436:Drivers/STM32G4xx_HAL_Driver/Inc/stm32g4xx_ll_ucpd.h **** {
1437:Drivers/STM32G4xx_HAL_Driver/Inc/stm32g4xx_ll_ucpd.h ****   SET_BIT(UCPDx->ICR, UCPD_ICR_TXMSGDISCCF);
 152              		.loc 2 1437 3 view .LVU47
 153 0086 AB69     		ldr	r3, [r5, #24]
 154              	.LVL9:
 155              		.loc 2 1437 3 is_stmt 0 view .LVU48
 156 0088 43F00203 		orr	r3, r3, #2
 157 008c AB61     		str	r3, [r5, #24]
 158              	.LVL10:
 159              		.loc 2 1437 3 view .LVU49
 160              	.LBE31:
 161              	.LBE30:
  57:Middlewares/ST/STM32_USBPD_Library/Devices/STM32G4XX/src/usbpd_hw_if_it.c ****       while ((Ports[PortNum].hdmatx->CCR & DMA_CCR_EN) == DMA_CCR_EN);
 162              		.loc 1 57 7 is_stmt 1 view .LVU50
 163 008e C0EB0013 		rsb	r3, r0, r0, lsl #4
 164 0092 724A     		ldr	r2, .L31
 165 0094 02EB8303 		add	r3, r2, r3, lsl #2
 166 0098 5A68     		ldr	r2, [r3, #4]
 167 009a 1368     		ldr	r3, [r2]
 168 009c 23F00103 		bic	r3, r3, #1
 169 00a0 1360     		str	r3, [r2]
  58:Middlewares/ST/STM32_USBPD_Library/Devices/STM32G4XX/src/usbpd_hw_if_it.c ****       Ports[PortNum].cbs.USBPD_HW_IF_TxCompleted(PortNum, 1);
 170              		.loc 1 58 7 view .LVU51
 171              	.L4:
  58:Middlewares/ST/STM32_USBPD_Library/Devices/STM32G4XX/src/usbpd_hw_if_it.c ****       Ports[PortNum].cbs.USBPD_HW_IF_TxCompleted(PortNum, 1);
 172              		.loc 1 58 70 discriminator 1 view .LVU52
  58:Middlewares/ST/STM32_USBPD_Library/Devices/STM32G4XX/src/usbpd_hw_if_it.c ****       Ports[PortNum].cbs.USBPD_HW_IF_TxCompleted(PortNum, 1);
 173              		.loc 1 58 13 discriminator 1 view .LVU53
  58:Middlewares/ST/STM32_USBPD_Library/Devices/STM32G4XX/src/usbpd_hw_if_it.c ****       Ports[PortNum].cbs.USBPD_HW_IF_TxCompleted(PortNum, 1);
 174              		.loc 1 58 29 is_stmt 0 discriminator 1 view .LVU54
 175 00a2 C4EB0413 		rsb	r3, r4, r4, lsl #4
 176 00a6 6D4A     		ldr	r2, .L31
 177 00a8 02EB8303 		add	r3, r2, r3, lsl #2
 178 00ac 5B68     		ldr	r3, [r3, #4]
  58:Middlewares/ST/STM32_USBPD_Library/Devices/STM32G4XX/src/usbpd_hw_if_it.c ****       Ports[PortNum].cbs.USBPD_HW_IF_TxCompleted(PortNum, 1);
 179              		.loc 1 58 36 discriminator 1 view .LVU55
 180 00ae 1B68     		ldr	r3, [r3]
  58:Middlewares/ST/STM32_USBPD_Library/Devices/STM32G4XX/src/usbpd_hw_if_it.c ****       Ports[PortNum].cbs.USBPD_HW_IF_TxCompleted(PortNum, 1);
 181              		.loc 1 58 13 discriminator 1 view .LVU56
 182 00b0 13F0010F 		tst	r3, #1
 183 00b4 F5D1     		bne	.L4
  59:Middlewares/ST/STM32_USBPD_Library/Devices/STM32G4XX/src/usbpd_hw_if_it.c ****       return;
 184              		.loc 1 59 7 is_stmt 1 view .LVU57
  59:Middlewares/ST/STM32_USBPD_Library/Devices/STM32G4XX/src/usbpd_hw_if_it.c ****       return;
 185              		.loc 1 59 25 is_stmt 0 view .LVU58
 186 00b6 C4EB0412 		rsb	r2, r4, r4, lsl #4
ARM GAS  /var/folders/kd/c99kx6qx51n19rszfxl6vhn80000gp/T//ccdYvVMp.s 			page 33


 187 00ba 684B     		ldr	r3, .L31
 188 00bc 03EB8203 		add	r3, r3, r2, lsl #2
 189 00c0 5B69     		ldr	r3, [r3, #20]
  59:Middlewares/ST/STM32_USBPD_Library/Devices/STM32G4XX/src/usbpd_hw_if_it.c ****       return;
 190              		.loc 1 59 7 view .LVU59
 191 00c2 0121     		movs	r1, #1
 192 00c4 2046     		mov	r0, r4
 193              	.LVL11:
  59:Middlewares/ST/STM32_USBPD_Library/Devices/STM32G4XX/src/usbpd_hw_if_it.c ****       return;
 194              		.loc 1 59 7 view .LVU60
 195 00c6 9847     		blx	r3
 196              	.LVL12:
  60:Middlewares/ST/STM32_USBPD_Library/Devices/STM32G4XX/src/usbpd_hw_if_it.c ****     }
 197              		.loc 1 60 7 is_stmt 1 view .LVU61
 198              	.L1:
 190:Middlewares/ST/STM32_USBPD_Library/Devices/STM32G4XX/src/usbpd_hw_if_it.c ****     }
 191:Middlewares/ST/STM32_USBPD_Library/Devices/STM32G4XX/src/usbpd_hw_if_it.c **** 
 192:Middlewares/ST/STM32_USBPD_Library/Devices/STM32G4XX/src/usbpd_hw_if_it.c **** #if defined(_FRS)
 193:Middlewares/ST/STM32_USBPD_Library/Devices/STM32G4XX/src/usbpd_hw_if_it.c ****     /* Check FRSEVTIE */
 194:Middlewares/ST/STM32_USBPD_Library/Devices/STM32G4XX/src/usbpd_hw_if_it.c ****     if (UCPD_SR_FRSEVT == (_interrupt & UCPD_SR_FRSEVT))
 195:Middlewares/ST/STM32_USBPD_Library/Devices/STM32G4XX/src/usbpd_hw_if_it.c ****     {
 196:Middlewares/ST/STM32_USBPD_Library/Devices/STM32G4XX/src/usbpd_hw_if_it.c ****       LL_UCPD_ClearFlag_FRS(hucpd);
 197:Middlewares/ST/STM32_USBPD_Library/Devices/STM32G4XX/src/usbpd_hw_if_it.c ****       if ((USBPD_PORTPOWERROLE_SNK == Ports[PortNum].params->PE_PowerRole)
 198:Middlewares/ST/STM32_USBPD_Library/Devices/STM32G4XX/src/usbpd_hw_if_it.c ****           && (Ports[PortNum].params->PE_SwapOngoing == USBPD_FALSE))
 199:Middlewares/ST/STM32_USBPD_Library/Devices/STM32G4XX/src/usbpd_hw_if_it.c ****       {
 200:Middlewares/ST/STM32_USBPD_Library/Devices/STM32G4XX/src/usbpd_hw_if_it.c ****         /* Confirm the FRS by checking if an RP is always present on the current CC line.
 201:Middlewares/ST/STM32_USBPD_Library/Devices/STM32G4XX/src/usbpd_hw_if_it.c ****            We should wait for maximum FRS timing */
 202:Middlewares/ST/STM32_USBPD_Library/Devices/STM32G4XX/src/usbpd_hw_if_it.c ****         USBPD_TIM_Start((TIM_identifier)(2 * PortNum), 150);
 203:Middlewares/ST/STM32_USBPD_Library/Devices/STM32G4XX/src/usbpd_hw_if_it.c ****         while ((USBPD_TIM_IsExpired((TIM_identifier)(2u * PortNum)) == 0u));
 204:Middlewares/ST/STM32_USBPD_Library/Devices/STM32G4XX/src/usbpd_hw_if_it.c **** 
 205:Middlewares/ST/STM32_USBPD_Library/Devices/STM32G4XX/src/usbpd_hw_if_it.c ****         if ((0 != (hucpd->SR & (UCPD_SR_TYPEC_VSTATE_CC1 | UCPD_SR_TYPEC_VSTATE_CC2))) &&
 206:Middlewares/ST/STM32_USBPD_Library/Devices/STM32G4XX/src/usbpd_hw_if_it.c ****             (USBPD_POWER_EXPLICITCONTRACT == Ports[PortNum].params->PE_Power))
 207:Middlewares/ST/STM32_USBPD_Library/Devices/STM32G4XX/src/usbpd_hw_if_it.c ****         {
 208:Middlewares/ST/STM32_USBPD_Library/Devices/STM32G4XX/src/usbpd_hw_if_it.c ****           /* Switch the power to take the control of VBUS.
 209:Middlewares/ST/STM32_USBPD_Library/Devices/STM32G4XX/src/usbpd_hw_if_it.c ****              When VBUS go under VSAFE5V the sink shall switch ON VBUS in timing < tSrcFRSwap */
 210:Middlewares/ST/STM32_USBPD_Library/Devices/STM32G4XX/src/usbpd_hw_if_it.c ****           BSP_USBPD_PWR_FRSVBUSEnable(PortNum);
 211:Middlewares/ST/STM32_USBPD_Library/Devices/STM32G4XX/src/usbpd_hw_if_it.c ****           USBPD_TRACE_Add(USBPD_TRACE_DEBUG, PortNum, 0, "FRS received", 12u);
 212:Middlewares/ST/STM32_USBPD_Library/Devices/STM32G4XX/src/usbpd_hw_if_it.c ****           Ports[PortNum].cbs.USBPD_HW_IF_TX_FRSReception(PortNum);
 213:Middlewares/ST/STM32_USBPD_Library/Devices/STM32G4XX/src/usbpd_hw_if_it.c ****         }
 214:Middlewares/ST/STM32_USBPD_Library/Devices/STM32G4XX/src/usbpd_hw_if_it.c ****       }
 215:Middlewares/ST/STM32_USBPD_Library/Devices/STM32G4XX/src/usbpd_hw_if_it.c ****     }
 216:Middlewares/ST/STM32_USBPD_Library/Devices/STM32G4XX/src/usbpd_hw_if_it.c **** #endif /* _FRS */
 217:Middlewares/ST/STM32_USBPD_Library/Devices/STM32G4XX/src/usbpd_hw_if_it.c ****   }
 218:Middlewares/ST/STM32_USBPD_Library/Devices/STM32G4XX/src/usbpd_hw_if_it.c **** }
 199              		.loc 1 218 1 is_stmt 0 view .LVU62
 200 00c8 38BD     		pop	{r3, r4, r5, pc}
 201              	.LVL13:
 202              	.L21:
  66:Middlewares/ST/STM32_USBPD_Library/Devices/STM32G4XX/src/usbpd_hw_if_it.c ****       CLEAR_BIT(Ports[PortNum].hdmatx->CCR, DMA_CCR_EN);
 203              		.loc 1 66 7 is_stmt 1 view .LVU63
 204              	.LBB32:
 205              	.LBI32:
1424:Drivers/STM32G4xx_HAL_Driver/Inc/stm32g4xx_ll_ucpd.h **** {
 206              		.loc 2 1424 22 view .LVU64
 207              	.LBB33:
1426:Drivers/STM32G4xx_HAL_Driver/Inc/stm32g4xx_ll_ucpd.h **** }
 208              		.loc 2 1426 3 view .LVU65
ARM GAS  /var/folders/kd/c99kx6qx51n19rszfxl6vhn80000gp/T//ccdYvVMp.s 			page 34


 209 00ca AB69     		ldr	r3, [r5, #24]
 210              	.LVL14:
1426:Drivers/STM32G4xx_HAL_Driver/Inc/stm32g4xx_ll_ucpd.h **** }
 211              		.loc 2 1426 3 is_stmt 0 view .LVU66
 212 00cc 43F00403 		orr	r3, r3, #4
 213 00d0 AB61     		str	r3, [r5, #24]
 214              	.LVL15:
1426:Drivers/STM32G4xx_HAL_Driver/Inc/stm32g4xx_ll_ucpd.h **** }
 215              		.loc 2 1426 3 view .LVU67
 216              	.LBE33:
 217              	.LBE32:
  67:Middlewares/ST/STM32_USBPD_Library/Devices/STM32G4XX/src/usbpd_hw_if_it.c ****       while ((Ports[PortNum].hdmatx->CCR & DMA_CCR_EN) == DMA_CCR_EN);
 218              		.loc 1 67 7 is_stmt 1 view .LVU68
 219 00d2 C0EB0013 		rsb	r3, r0, r0, lsl #4
 220 00d6 614A     		ldr	r2, .L31
 221 00d8 02EB8303 		add	r3, r2, r3, lsl #2
 222 00dc 5A68     		ldr	r2, [r3, #4]
 223 00de 1368     		ldr	r3, [r2]
 224 00e0 23F00103 		bic	r3, r3, #1
 225 00e4 1360     		str	r3, [r2]
  68:Middlewares/ST/STM32_USBPD_Library/Devices/STM32G4XX/src/usbpd_hw_if_it.c ****       Ports[PortNum].cbs.USBPD_HW_IF_TxCompleted(PortNum, 0);
 226              		.loc 1 68 7 view .LVU69
 227              	.L6:
  68:Middlewares/ST/STM32_USBPD_Library/Devices/STM32G4XX/src/usbpd_hw_if_it.c ****       Ports[PortNum].cbs.USBPD_HW_IF_TxCompleted(PortNum, 0);
 228              		.loc 1 68 70 discriminator 1 view .LVU70
  68:Middlewares/ST/STM32_USBPD_Library/Devices/STM32G4XX/src/usbpd_hw_if_it.c ****       Ports[PortNum].cbs.USBPD_HW_IF_TxCompleted(PortNum, 0);
 229              		.loc 1 68 13 discriminator 1 view .LVU71
  68:Middlewares/ST/STM32_USBPD_Library/Devices/STM32G4XX/src/usbpd_hw_if_it.c ****       Ports[PortNum].cbs.USBPD_HW_IF_TxCompleted(PortNum, 0);
 230              		.loc 1 68 29 is_stmt 0 discriminator 1 view .LVU72
 231 00e6 C4EB0413 		rsb	r3, r4, r4, lsl #4
 232 00ea 5C4A     		ldr	r2, .L31
 233 00ec 02EB8303 		add	r3, r2, r3, lsl #2
 234 00f0 5B68     		ldr	r3, [r3, #4]
  68:Middlewares/ST/STM32_USBPD_Library/Devices/STM32G4XX/src/usbpd_hw_if_it.c ****       Ports[PortNum].cbs.USBPD_HW_IF_TxCompleted(PortNum, 0);
 235              		.loc 1 68 36 discriminator 1 view .LVU73
 236 00f2 1B68     		ldr	r3, [r3]
  68:Middlewares/ST/STM32_USBPD_Library/Devices/STM32G4XX/src/usbpd_hw_if_it.c ****       Ports[PortNum].cbs.USBPD_HW_IF_TxCompleted(PortNum, 0);
 237              		.loc 1 68 13 discriminator 1 view .LVU74
 238 00f4 13F0010F 		tst	r3, #1
 239 00f8 F5D1     		bne	.L6
  69:Middlewares/ST/STM32_USBPD_Library/Devices/STM32G4XX/src/usbpd_hw_if_it.c **** 
 240              		.loc 1 69 7 is_stmt 1 view .LVU75
  69:Middlewares/ST/STM32_USBPD_Library/Devices/STM32G4XX/src/usbpd_hw_if_it.c **** 
 241              		.loc 1 69 25 is_stmt 0 view .LVU76
 242 00fa C4EB0412 		rsb	r2, r4, r4, lsl #4
 243 00fe 574B     		ldr	r3, .L31
 244 0100 03EB8203 		add	r3, r3, r2, lsl #2
 245 0104 5B69     		ldr	r3, [r3, #20]
  69:Middlewares/ST/STM32_USBPD_Library/Devices/STM32G4XX/src/usbpd_hw_if_it.c **** 
 246              		.loc 1 69 7 view .LVU77
 247 0106 0021     		movs	r1, #0
 248 0108 2046     		mov	r0, r4
 249              	.LVL16:
  69:Middlewares/ST/STM32_USBPD_Library/Devices/STM32G4XX/src/usbpd_hw_if_it.c **** 
 250              		.loc 1 69 7 view .LVU78
 251 010a 9847     		blx	r3
 252              	.LVL17:
ARM GAS  /var/folders/kd/c99kx6qx51n19rszfxl6vhn80000gp/T//ccdYvVMp.s 			page 35


  74:Middlewares/ST/STM32_USBPD_Library/Devices/STM32G4XX/src/usbpd_hw_if_it.c ****     }
 253              		.loc 1 74 7 is_stmt 1 view .LVU79
 254 010c DCE7     		b	.L1
 255              	.LVL18:
 256              	.L22:
  79:Middlewares/ST/STM32_USBPD_Library/Devices/STM32G4XX/src/usbpd_hw_if_it.c ****       CLEAR_BIT(Ports[PortNum].hdmatx->CCR, DMA_CCR_EN);
 257              		.loc 1 79 7 view .LVU80
 258              	.LBB34:
 259              	.LBI34:
1413:Drivers/STM32G4xx_HAL_Driver/Inc/stm32g4xx_ll_ucpd.h **** {
 260              		.loc 2 1413 22 view .LVU81
 261              	.LBB35:
1415:Drivers/STM32G4xx_HAL_Driver/Inc/stm32g4xx_ll_ucpd.h **** }
 262              		.loc 2 1415 3 view .LVU82
 263 010e AB69     		ldr	r3, [r5, #24]
 264              	.LVL19:
1415:Drivers/STM32G4xx_HAL_Driver/Inc/stm32g4xx_ll_ucpd.h **** }
 265              		.loc 2 1415 3 is_stmt 0 view .LVU83
 266 0110 43F00803 		orr	r3, r3, #8
 267 0114 AB61     		str	r3, [r5, #24]
 268              	.LVL20:
1415:Drivers/STM32G4xx_HAL_Driver/Inc/stm32g4xx_ll_ucpd.h **** }
 269              		.loc 2 1415 3 view .LVU84
 270              	.LBE35:
 271              	.LBE34:
  80:Middlewares/ST/STM32_USBPD_Library/Devices/STM32G4XX/src/usbpd_hw_if_it.c ****       while ((Ports[PortNum].hdmatx->CCR &  DMA_CCR_EN) == DMA_CCR_EN);
 272              		.loc 1 80 7 is_stmt 1 view .LVU85
 273 0116 C0EB0013 		rsb	r3, r0, r0, lsl #4
 274 011a 504A     		ldr	r2, .L31
 275 011c 02EB8303 		add	r3, r2, r3, lsl #2
 276 0120 5A68     		ldr	r2, [r3, #4]
 277 0122 1368     		ldr	r3, [r2]
 278 0124 23F00103 		bic	r3, r3, #1
 279 0128 1360     		str	r3, [r2]
  81:Middlewares/ST/STM32_USBPD_Library/Devices/STM32G4XX/src/usbpd_hw_if_it.c ****       Ports[PortNum].cbs.USBPD_HW_IF_TxCompleted(PortNum, 2);
 280              		.loc 1 81 7 view .LVU86
 281              	.L8:
  81:Middlewares/ST/STM32_USBPD_Library/Devices/STM32G4XX/src/usbpd_hw_if_it.c ****       Ports[PortNum].cbs.USBPD_HW_IF_TxCompleted(PortNum, 2);
 282              		.loc 1 81 71 discriminator 1 view .LVU87
  81:Middlewares/ST/STM32_USBPD_Library/Devices/STM32G4XX/src/usbpd_hw_if_it.c ****       Ports[PortNum].cbs.USBPD_HW_IF_TxCompleted(PortNum, 2);
 283              		.loc 1 81 13 discriminator 1 view .LVU88
  81:Middlewares/ST/STM32_USBPD_Library/Devices/STM32G4XX/src/usbpd_hw_if_it.c ****       Ports[PortNum].cbs.USBPD_HW_IF_TxCompleted(PortNum, 2);
 284              		.loc 1 81 29 is_stmt 0 discriminator 1 view .LVU89
 285 012a C4EB0413 		rsb	r3, r4, r4, lsl #4
 286 012e 4B4A     		ldr	r2, .L31
 287 0130 02EB8303 		add	r3, r2, r3, lsl #2
 288 0134 5B68     		ldr	r3, [r3, #4]
  81:Middlewares/ST/STM32_USBPD_Library/Devices/STM32G4XX/src/usbpd_hw_if_it.c ****       Ports[PortNum].cbs.USBPD_HW_IF_TxCompleted(PortNum, 2);
 289              		.loc 1 81 36 discriminator 1 view .LVU90
 290 0136 1B68     		ldr	r3, [r3]
  81:Middlewares/ST/STM32_USBPD_Library/Devices/STM32G4XX/src/usbpd_hw_if_it.c ****       Ports[PortNum].cbs.USBPD_HW_IF_TxCompleted(PortNum, 2);
 291              		.loc 1 81 13 discriminator 1 view .LVU91
 292 0138 13F0010F 		tst	r3, #1
 293 013c F5D1     		bne	.L8
  82:Middlewares/ST/STM32_USBPD_Library/Devices/STM32G4XX/src/usbpd_hw_if_it.c ****       return;
 294              		.loc 1 82 7 is_stmt 1 view .LVU92
  82:Middlewares/ST/STM32_USBPD_Library/Devices/STM32G4XX/src/usbpd_hw_if_it.c ****       return;
ARM GAS  /var/folders/kd/c99kx6qx51n19rszfxl6vhn80000gp/T//ccdYvVMp.s 			page 36


 295              		.loc 1 82 25 is_stmt 0 view .LVU93
 296 013e C4EB0412 		rsb	r2, r4, r4, lsl #4
 297 0142 464B     		ldr	r3, .L31
 298 0144 03EB8203 		add	r3, r3, r2, lsl #2
 299 0148 5B69     		ldr	r3, [r3, #20]
  82:Middlewares/ST/STM32_USBPD_Library/Devices/STM32G4XX/src/usbpd_hw_if_it.c ****       return;
 300              		.loc 1 82 7 view .LVU94
 301 014a 0221     		movs	r1, #2
 302 014c 2046     		mov	r0, r4
 303              	.LVL21:
  82:Middlewares/ST/STM32_USBPD_Library/Devices/STM32G4XX/src/usbpd_hw_if_it.c ****       return;
 304              		.loc 1 82 7 view .LVU95
 305 014e 9847     		blx	r3
 306              	.LVL22:
  83:Middlewares/ST/STM32_USBPD_Library/Devices/STM32G4XX/src/usbpd_hw_if_it.c ****     }
 307              		.loc 1 83 7 is_stmt 1 view .LVU96
 308 0150 BAE7     		b	.L1
 309              	.LVL23:
 310              	.L23:
  89:Middlewares/ST/STM32_USBPD_Library/Devices/STM32G4XX/src/usbpd_hw_if_it.c ****       return;
 311              		.loc 1 89 7 view .LVU97
 312              	.LBB36:
 313              	.LBI36:
1402:Drivers/STM32G4xx_HAL_Driver/Inc/stm32g4xx_ll_ucpd.h **** {
 314              		.loc 2 1402 22 view .LVU98
 315              	.LBB37:
1404:Drivers/STM32G4xx_HAL_Driver/Inc/stm32g4xx_ll_ucpd.h **** }
 316              		.loc 2 1404 3 view .LVU99
 317 0152 AB69     		ldr	r3, [r5, #24]
 318              	.LVL24:
1404:Drivers/STM32G4xx_HAL_Driver/Inc/stm32g4xx_ll_ucpd.h **** }
 319              		.loc 2 1404 3 is_stmt 0 view .LVU100
 320 0154 43F01003 		orr	r3, r3, #16
 321 0158 AB61     		str	r3, [r5, #24]
 322              	.LVL25:
1404:Drivers/STM32G4xx_HAL_Driver/Inc/stm32g4xx_ll_ucpd.h **** }
 323              		.loc 2 1404 3 view .LVU101
 324              	.LBE37:
 325              	.LBE36:
  90:Middlewares/ST/STM32_USBPD_Library/Devices/STM32G4XX/src/usbpd_hw_if_it.c ****     }
 326              		.loc 1 90 7 is_stmt 1 view .LVU102
 327 015a B5E7     		b	.L1
 328              	.LVL26:
 329              	.L24:
  97:Middlewares/ST/STM32_USBPD_Library/Devices/STM32G4XX/src/usbpd_hw_if_it.c ****       Ports[PortNum].cbs.USBPD_HW_IF_TX_HardResetCompleted(PortNum, USBPD_SOPTYPE_HARD_RESET);
 330              		.loc 1 97 7 view .LVU103
 331              	.LBB38:
 332              	.LBI38:
1391:Drivers/STM32G4xx_HAL_Driver/Inc/stm32g4xx_ll_ucpd.h **** {
 333              		.loc 2 1391 22 view .LVU104
 334              	.LBB39:
1393:Drivers/STM32G4xx_HAL_Driver/Inc/stm32g4xx_ll_ucpd.h **** }
 335              		.loc 2 1393 3 view .LVU105
 336 015c AB69     		ldr	r3, [r5, #24]
 337              	.LVL27:
1393:Drivers/STM32G4xx_HAL_Driver/Inc/stm32g4xx_ll_ucpd.h **** }
 338              		.loc 2 1393 3 is_stmt 0 view .LVU106
ARM GAS  /var/folders/kd/c99kx6qx51n19rszfxl6vhn80000gp/T//ccdYvVMp.s 			page 37


 339 015e 43F02003 		orr	r3, r3, #32
 340 0162 AB61     		str	r3, [r5, #24]
 341              	.LVL28:
1393:Drivers/STM32G4xx_HAL_Driver/Inc/stm32g4xx_ll_ucpd.h **** }
 342              		.loc 2 1393 3 view .LVU107
 343              	.LBE39:
 344              	.LBE38:
  98:Middlewares/ST/STM32_USBPD_Library/Devices/STM32G4XX/src/usbpd_hw_if_it.c ****       return;
 345              		.loc 1 98 7 is_stmt 1 view .LVU108
  98:Middlewares/ST/STM32_USBPD_Library/Devices/STM32G4XX/src/usbpd_hw_if_it.c ****       return;
 346              		.loc 1 98 25 is_stmt 0 view .LVU109
 347 0164 C0EB0012 		rsb	r2, r0, r0, lsl #4
 348 0168 3C4B     		ldr	r3, .L31
 349 016a 03EB8203 		add	r3, r3, r2, lsl #2
 350 016e 5B6A     		ldr	r3, [r3, #36]
  98:Middlewares/ST/STM32_USBPD_Library/Devices/STM32G4XX/src/usbpd_hw_if_it.c ****       return;
 351              		.loc 1 98 7 view .LVU110
 352 0170 0521     		movs	r1, #5
 353 0172 9847     		blx	r3
 354              	.LVL29:
  99:Middlewares/ST/STM32_USBPD_Library/Devices/STM32G4XX/src/usbpd_hw_if_it.c ****     }
 355              		.loc 1 99 7 is_stmt 1 view .LVU111
 356 0174 A8E7     		b	.L1
 357              	.LVL30:
 358              	.L25:
 108:Middlewares/ST/STM32_USBPD_Library/Devices/STM32G4XX/src/usbpd_hw_if_it.c ****       return;
 359              		.loc 1 108 7 view .LVU112
 360              	.LBB40:
 361              	.LBI40:
1380:Drivers/STM32G4xx_HAL_Driver/Inc/stm32g4xx_ll_ucpd.h **** {
 362              		.loc 2 1380 22 view .LVU113
 363              	.LBB41:
1382:Drivers/STM32G4xx_HAL_Driver/Inc/stm32g4xx_ll_ucpd.h **** }
 364              		.loc 2 1382 3 view .LVU114
 365 0176 AB69     		ldr	r3, [r5, #24]
 366              	.LVL31:
1382:Drivers/STM32G4xx_HAL_Driver/Inc/stm32g4xx_ll_ucpd.h **** }
 367              		.loc 2 1382 3 is_stmt 0 view .LVU115
 368 0178 43F04003 		orr	r3, r3, #64
 369 017c AB61     		str	r3, [r5, #24]
 370              	.LVL32:
1382:Drivers/STM32G4xx_HAL_Driver/Inc/stm32g4xx_ll_ucpd.h **** }
 371              		.loc 2 1382 3 view .LVU116
 372              	.LBE41:
 373              	.LBE40:
 109:Middlewares/ST/STM32_USBPD_Library/Devices/STM32G4XX/src/usbpd_hw_if_it.c ****     }
 374              		.loc 1 109 7 is_stmt 1 view .LVU117
 375 017e A3E7     		b	.L1
 376              	.LVL33:
 377              	.L26:
 116:Middlewares/ST/STM32_USBPD_Library/Devices/STM32G4XX/src/usbpd_hw_if_it.c ****       {
 378              		.loc 1 116 7 view .LVU118
 116:Middlewares/ST/STM32_USBPD_Library/Devices/STM32G4XX/src/usbpd_hw_if_it.c ****       {
 379              		.loc 1 116 48 is_stmt 0 view .LVU119
 380 0180 AB6A     		ldr	r3, [r5, #40]
 381              	.LVL34:
 116:Middlewares/ST/STM32_USBPD_Library/Devices/STM32G4XX/src/usbpd_hw_if_it.c ****       {
ARM GAS  /var/folders/kd/c99kx6qx51n19rszfxl6vhn80000gp/T//ccdYvVMp.s 			page 38


 382              		.loc 1 116 10 view .LVU120
 383 0182 052B     		cmp	r3, #5
 384 0184 0CD0     		beq	.L30
 385              	.LVL35:
 386              	.L13:
 121:Middlewares/ST/STM32_USBPD_Library/Devices/STM32G4XX/src/usbpd_hw_if_it.c **** #if defined(_LOW_POWER)
 387              		.loc 1 121 7 is_stmt 1 view .LVU121
 388              	.LBB42:
 389              	.LBI42:
1369:Drivers/STM32G4xx_HAL_Driver/Inc/stm32g4xx_ll_ucpd.h **** {
 390              		.loc 2 1369 22 view .LVU122
 391              	.LBB43:
1371:Drivers/STM32G4xx_HAL_Driver/Inc/stm32g4xx_ll_ucpd.h **** }
 392              		.loc 2 1371 3 view .LVU123
 393 0186 AB69     		ldr	r3, [r5, #24]
 394 0188 43F40073 		orr	r3, r3, #512
 395 018c AB61     		str	r3, [r5, #24]
 396              	.LVL36:
1371:Drivers/STM32G4xx_HAL_Driver/Inc/stm32g4xx_ll_ucpd.h **** }
 397              		.loc 2 1371 3 is_stmt 0 view .LVU124
 398              	.LBE43:
 399              	.LBE42:
 127:Middlewares/ST/STM32_USBPD_Library/Devices/STM32G4XX/src/usbpd_hw_if_it.c ****       return;
 400              		.loc 1 127 7 is_stmt 1 view .LVU125
 127:Middlewares/ST/STM32_USBPD_Library/Devices/STM32G4XX/src/usbpd_hw_if_it.c ****       return;
 401              		.loc 1 127 31 is_stmt 0 view .LVU126
 402 018e C4EB0414 		rsb	r4, r4, r4, lsl #4
 403 0192 324B     		ldr	r3, .L31
 404 0194 03EB8403 		add	r3, r3, r4, lsl #2
 405 0198 0122     		movs	r2, #1
 406 019a 83F83820 		strb	r2, [r3, #56]
 128:Middlewares/ST/STM32_USBPD_Library/Devices/STM32G4XX/src/usbpd_hw_if_it.c ****     }
 407              		.loc 1 128 7 is_stmt 1 view .LVU127
 408 019e 93E7     		b	.L1
 409              	.LVL37:
 410              	.L30:
 119:Middlewares/ST/STM32_USBPD_Library/Devices/STM32G4XX/src/usbpd_hw_if_it.c ****       }
 411              		.loc 1 119 9 view .LVU128
 119:Middlewares/ST/STM32_USBPD_Library/Devices/STM32G4XX/src/usbpd_hw_if_it.c ****       }
 412              		.loc 1 119 27 is_stmt 0 view .LVU129
 413 01a0 C0EB0012 		rsb	r2, r0, r0, lsl #4
 414 01a4 2D4B     		ldr	r3, .L31
 415 01a6 03EB8203 		add	r3, r3, r2, lsl #2
 416 01aa DB69     		ldr	r3, [r3, #28]
 119:Middlewares/ST/STM32_USBPD_Library/Devices/STM32G4XX/src/usbpd_hw_if_it.c ****       }
 417              		.loc 1 119 9 view .LVU130
 418 01ac 0621     		movs	r1, #6
 419 01ae 9847     		blx	r3
 420              	.LVL38:
 119:Middlewares/ST/STM32_USBPD_Library/Devices/STM32G4XX/src/usbpd_hw_if_it.c ****       }
 421              		.loc 1 119 9 view .LVU131
 422 01b0 E9E7     		b	.L13
 423              	.LVL39:
 424              	.L27:
 134:Middlewares/ST/STM32_USBPD_Library/Devices/STM32G4XX/src/usbpd_hw_if_it.c ****       LL_UCPD_ClearFlag_RxHRST(hucpd);
 425              		.loc 1 134 7 is_stmt 1 view .LVU132
 134:Middlewares/ST/STM32_USBPD_Library/Devices/STM32G4XX/src/usbpd_hw_if_it.c ****       LL_UCPD_ClearFlag_RxHRST(hucpd);
ARM GAS  /var/folders/kd/c99kx6qx51n19rszfxl6vhn80000gp/T//ccdYvVMp.s 			page 39


 426              		.loc 1 134 25 is_stmt 0 view .LVU133
 427 01b2 C0EB0012 		rsb	r2, r0, r0, lsl #4
 428 01b6 294B     		ldr	r3, .L31
 429              	.LVL40:
 134:Middlewares/ST/STM32_USBPD_Library/Devices/STM32G4XX/src/usbpd_hw_if_it.c ****       LL_UCPD_ClearFlag_RxHRST(hucpd);
 430              		.loc 1 134 25 view .LVU134
 431 01b8 03EB8203 		add	r3, r3, r2, lsl #2
 432 01bc DB69     		ldr	r3, [r3, #28]
 134:Middlewares/ST/STM32_USBPD_Library/Devices/STM32G4XX/src/usbpd_hw_if_it.c ****       LL_UCPD_ClearFlag_RxHRST(hucpd);
 433              		.loc 1 134 7 view .LVU135
 434 01be 0521     		movs	r1, #5
 435 01c0 9847     		blx	r3
 436              	.LVL41:
 135:Middlewares/ST/STM32_USBPD_Library/Devices/STM32G4XX/src/usbpd_hw_if_it.c ****       return;
 437              		.loc 1 135 7 is_stmt 1 view .LVU136
 438              	.LBB44:
 439              	.LBI44:
1358:Drivers/STM32G4xx_HAL_Driver/Inc/stm32g4xx_ll_ucpd.h **** {
 440              		.loc 2 1358 22 view .LVU137
 441              	.LBB45:
1360:Drivers/STM32G4xx_HAL_Driver/Inc/stm32g4xx_ll_ucpd.h **** }
 442              		.loc 2 1360 3 view .LVU138
 443 01c2 AB69     		ldr	r3, [r5, #24]
 444 01c4 43F48063 		orr	r3, r3, #1024
 445 01c8 AB61     		str	r3, [r5, #24]
 446              	.LVL42:
1360:Drivers/STM32G4xx_HAL_Driver/Inc/stm32g4xx_ll_ucpd.h **** }
 447              		.loc 2 1360 3 is_stmt 0 view .LVU139
 448              	.LBE45:
 449              	.LBE44:
 136:Middlewares/ST/STM32_USBPD_Library/Devices/STM32G4XX/src/usbpd_hw_if_it.c ****     }
 450              		.loc 1 136 7 is_stmt 1 view .LVU140
 451 01ca 7DE7     		b	.L1
 452              	.LVL43:
 453              	.L28:
 143:Middlewares/ST/STM32_USBPD_Library/Devices/STM32G4XX/src/usbpd_hw_if_it.c ****       LL_UCPD_ClearFlag_RxOvr(hucpd);
 454              		.loc 1 143 7 view .LVU141
 143:Middlewares/ST/STM32_USBPD_Library/Devices/STM32G4XX/src/usbpd_hw_if_it.c ****       LL_UCPD_ClearFlag_RxOvr(hucpd);
 455              		.loc 1 143 15 is_stmt 0 view .LVU142
 456 01cc 244B     		ldr	r3, .L31+4
 457              	.LVL44:
 143:Middlewares/ST/STM32_USBPD_Library/Devices/STM32G4XX/src/usbpd_hw_if_it.c ****       LL_UCPD_ClearFlag_RxOvr(hucpd);
 458              		.loc 1 143 15 view .LVU143
 459 01ce 0122     		movs	r2, #1
 460 01d0 1A70     		strb	r2, [r3]
 144:Middlewares/ST/STM32_USBPD_Library/Devices/STM32G4XX/src/usbpd_hw_if_it.c ****       return;
 461              		.loc 1 144 7 is_stmt 1 view .LVU144
 462              	.LVL45:
 463              	.LBB46:
 464              	.LBI46:
1347:Drivers/STM32G4xx_HAL_Driver/Inc/stm32g4xx_ll_ucpd.h **** {
 465              		.loc 2 1347 22 view .LVU145
 466              	.LBB47:
1349:Drivers/STM32G4xx_HAL_Driver/Inc/stm32g4xx_ll_ucpd.h **** }
 467              		.loc 2 1349 3 view .LVU146
 468 01d2 AB69     		ldr	r3, [r5, #24]
 469 01d4 43F40063 		orr	r3, r3, #2048
ARM GAS  /var/folders/kd/c99kx6qx51n19rszfxl6vhn80000gp/T//ccdYvVMp.s 			page 40


 470 01d8 AB61     		str	r3, [r5, #24]
 471              	.LVL46:
1349:Drivers/STM32G4xx_HAL_Driver/Inc/stm32g4xx_ll_ucpd.h **** }
 472              		.loc 2 1349 3 is_stmt 0 view .LVU147
 473              	.LBE47:
 474              	.LBE46:
 145:Middlewares/ST/STM32_USBPD_Library/Devices/STM32G4XX/src/usbpd_hw_if_it.c ****     }
 475              		.loc 1 145 7 is_stmt 1 view .LVU148
 476 01da 75E7     		b	.L1
 477              	.LVL47:
 478              	.L29:
 151:Middlewares/ST/STM32_USBPD_Library/Devices/STM32G4XX/src/usbpd_hw_if_it.c **** 
 479              		.loc 1 151 7 view .LVU149
 151:Middlewares/ST/STM32_USBPD_Library/Devices/STM32G4XX/src/usbpd_hw_if_it.c **** 
 480              		.loc 1 151 31 is_stmt 0 view .LVU150
 481 01dc C0EB0011 		rsb	r1, r0, r0, lsl #4
 482 01e0 1E4A     		ldr	r2, .L31
 483 01e2 02EB8102 		add	r2, r2, r1, lsl #2
 484 01e6 0021     		movs	r1, #0
 485 01e8 82F83810 		strb	r1, [r2, #56]
 155:Middlewares/ST/STM32_USBPD_Library/Devices/STM32G4XX/src/usbpd_hw_if_it.c **** 
 486              		.loc 1 155 7 is_stmt 1 view .LVU151
 487              	.LVL48:
 488              	.LBB48:
 489              	.LBI48:
1336:Drivers/STM32G4xx_HAL_Driver/Inc/stm32g4xx_ll_ucpd.h **** {
 490              		.loc 2 1336 22 view .LVU152
 491              	.LBB49:
1338:Drivers/STM32G4xx_HAL_Driver/Inc/stm32g4xx_ll_ucpd.h **** }
 492              		.loc 2 1338 3 view .LVU153
 493 01ec A969     		ldr	r1, [r5, #24]
 494 01ee 41F48051 		orr	r1, r1, #4096
 495 01f2 A961     		str	r1, [r5, #24]
 496              	.LVL49:
1338:Drivers/STM32G4xx_HAL_Driver/Inc/stm32g4xx_ll_ucpd.h **** }
 497              		.loc 2 1338 3 is_stmt 0 view .LVU154
 498              	.LBE49:
 499              	.LBE48:
 158:Middlewares/ST/STM32_USBPD_Library/Devices/STM32G4XX/src/usbpd_hw_if_it.c ****       while ((Ports[PortNum].hdmarx->CCR & DMA_CCR_EN) == DMA_CCR_EN);
 500              		.loc 1 158 7 is_stmt 1 view .LVU155
 501 01f4 9168     		ldr	r1, [r2, #8]
 502 01f6 0A68     		ldr	r2, [r1]
 503 01f8 22F00102 		bic	r2, r2, #1
 504 01fc 0A60     		str	r2, [r1]
 159:Middlewares/ST/STM32_USBPD_Library/Devices/STM32G4XX/src/usbpd_hw_if_it.c **** 
 505              		.loc 1 159 7 view .LVU156
 506              	.L17:
 159:Middlewares/ST/STM32_USBPD_Library/Devices/STM32G4XX/src/usbpd_hw_if_it.c **** 
 507              		.loc 1 159 70 discriminator 1 view .LVU157
 159:Middlewares/ST/STM32_USBPD_Library/Devices/STM32G4XX/src/usbpd_hw_if_it.c **** 
 508              		.loc 1 159 13 discriminator 1 view .LVU158
 159:Middlewares/ST/STM32_USBPD_Library/Devices/STM32G4XX/src/usbpd_hw_if_it.c **** 
 509              		.loc 1 159 29 is_stmt 0 discriminator 1 view .LVU159
 510 01fe C4EB0412 		rsb	r2, r4, r4, lsl #4
 511 0202 1649     		ldr	r1, .L31
 512 0204 01EB8202 		add	r2, r1, r2, lsl #2
 513 0208 9268     		ldr	r2, [r2, #8]
ARM GAS  /var/folders/kd/c99kx6qx51n19rszfxl6vhn80000gp/T//ccdYvVMp.s 			page 41


 159:Middlewares/ST/STM32_USBPD_Library/Devices/STM32G4XX/src/usbpd_hw_if_it.c **** 
 514              		.loc 1 159 36 discriminator 1 view .LVU160
 515 020a 1168     		ldr	r1, [r2]
 159:Middlewares/ST/STM32_USBPD_Library/Devices/STM32G4XX/src/usbpd_hw_if_it.c **** 
 516              		.loc 1 159 13 discriminator 1 view .LVU161
 517 020c 11F0010F 		tst	r1, #1
 518 0210 F5D1     		bne	.L17
 162:Middlewares/ST/STM32_USBPD_Library/Devices/STM32G4XX/src/usbpd_hw_if_it.c ****       WRITE_REG(Ports[PortNum].hdmarx->CNDTR, SIZE_MAX_PD_TRANSACTION_UNCHUNK);
 519              		.loc 1 162 7 is_stmt 1 view .LVU162
 520 0212 C4EB0410 		rsb	r0, r4, r4, lsl #4
 521              	.LVL50:
 162:Middlewares/ST/STM32_USBPD_Library/Devices/STM32G4XX/src/usbpd_hw_if_it.c ****       WRITE_REG(Ports[PortNum].hdmarx->CNDTR, SIZE_MAX_PD_TRANSACTION_UNCHUNK);
 522              		.loc 1 162 7 is_stmt 0 view .LVU163
 523 0216 1149     		ldr	r1, .L31
 524 0218 01EB8001 		add	r1, r1, r0, lsl #2
 525 021c 086B     		ldr	r0, [r1, #48]
 526 021e D060     		str	r0, [r2, #12]
 163:Middlewares/ST/STM32_USBPD_Library/Devices/STM32G4XX/src/usbpd_hw_if_it.c **** 
 527              		.loc 1 163 7 is_stmt 1 view .LVU164
 528 0220 8A68     		ldr	r2, [r1, #8]
 529 0222 4FF48470 		mov	r0, #264
 530 0226 5060     		str	r0, [r2, #4]
 166:Middlewares/ST/STM32_USBPD_Library/Devices/STM32G4XX/src/usbpd_hw_if_it.c **** #if defined(_LOW_POWER)
 531              		.loc 1 166 7 view .LVU165
 532 0228 8968     		ldr	r1, [r1, #8]
 533 022a 0A68     		ldr	r2, [r1]
 534 022c 42F00102 		orr	r2, r2, #1
 535 0230 0A60     		str	r2, [r1]
 171:Middlewares/ST/STM32_USBPD_Library/Devices/STM32G4XX/src/usbpd_hw_if_it.c ****       {
 536              		.loc 1 171 7 view .LVU166
 171:Middlewares/ST/STM32_USBPD_Library/Devices/STM32G4XX/src/usbpd_hw_if_it.c ****       {
 537              		.loc 1 171 10 is_stmt 0 view .LVU167
 538 0232 13F4005F 		tst	r3, #8192
 539 0236 0DD1     		bne	.L18
 171:Middlewares/ST/STM32_USBPD_Library/Devices/STM32G4XX/src/usbpd_hw_if_it.c ****       {
 540              		.loc 1 171 60 discriminator 1 view .LVU168
 541 0238 094B     		ldr	r3, .L31+4
 542              	.LVL51:
 171:Middlewares/ST/STM32_USBPD_Library/Devices/STM32G4XX/src/usbpd_hw_if_it.c ****       {
 543              		.loc 1 171 60 discriminator 1 view .LVU169
 544 023a 1B78     		ldrb	r3, [r3]	@ zero_extendqisi2
 171:Middlewares/ST/STM32_USBPD_Library/Devices/STM32G4XX/src/usbpd_hw_if_it.c ****       {
 545              		.loc 1 171 48 discriminator 1 view .LVU170
 546 023c 53B9     		cbnz	r3, .L18
 174:Middlewares/ST/STM32_USBPD_Library/Devices/STM32G4XX/src/usbpd_hw_if_it.c ****       }
 547              		.loc 1 174 9 is_stmt 1 view .LVU171
 174:Middlewares/ST/STM32_USBPD_Library/Devices/STM32G4XX/src/usbpd_hw_if_it.c ****       }
 548              		.loc 1 174 27 is_stmt 0 view .LVU172
 549 023e C4EB0412 		rsb	r2, r4, r4, lsl #4
 550 0242 064B     		ldr	r3, .L31
 551 0244 03EB8203 		add	r3, r3, r2, lsl #2
 552 0248 1B6A     		ldr	r3, [r3, #32]
 174:Middlewares/ST/STM32_USBPD_Library/Devices/STM32G4XX/src/usbpd_hw_if_it.c ****       }
 553              		.loc 1 174 67 view .LVU173
 554 024a A96A     		ldr	r1, [r5, #40]
 174:Middlewares/ST/STM32_USBPD_Library/Devices/STM32G4XX/src/usbpd_hw_if_it.c ****       }
 555              		.loc 1 174 9 view .LVU174
ARM GAS  /var/folders/kd/c99kx6qx51n19rszfxl6vhn80000gp/T//ccdYvVMp.s 			page 42


 556 024c 01F00701 		and	r1, r1, #7
 557 0250 2046     		mov	r0, r4
 558 0252 9847     		blx	r3
 559              	.LVL52:
 560              	.L18:
 176:Middlewares/ST/STM32_USBPD_Library/Devices/STM32G4XX/src/usbpd_hw_if_it.c ****       return;
 561              		.loc 1 176 7 is_stmt 1 view .LVU175
 176:Middlewares/ST/STM32_USBPD_Library/Devices/STM32G4XX/src/usbpd_hw_if_it.c ****       return;
 562              		.loc 1 176 15 is_stmt 0 view .LVU176
 563 0254 024B     		ldr	r3, .L31+4
 564 0256 0022     		movs	r2, #0
 565 0258 1A70     		strb	r2, [r3]
 177:Middlewares/ST/STM32_USBPD_Library/Devices/STM32G4XX/src/usbpd_hw_if_it.c ****     }
 566              		.loc 1 177 7 is_stmt 1 view .LVU177
 567 025a 35E7     		b	.L1
 568              	.L32:
 569              		.align	2
 570              	.L31:
 571 025c 00000000 		.word	Ports
 572 0260 00000000 		.word	.LANCHOR0
 573              		.cfi_endproc
 574              	.LFE951:
 576              		.section	.text.USBPD_PORT0_IRQHandler,"ax",%progbits
 577              		.align	1
 578              		.global	USBPD_PORT0_IRQHandler
 579              		.syntax unified
 580              		.thumb
 581              		.thumb_func
 583              	USBPD_PORT0_IRQHandler:
 584              	.LFB950:
  40:Middlewares/ST/STM32_USBPD_Library/Devices/STM32G4XX/src/usbpd_hw_if_it.c ****   PORTx_IRQHandler(USBPD_PORT_0);
 585              		.loc 1 40 1 view -0
 586              		.cfi_startproc
 587              		@ args = 0, pretend = 0, frame = 0
 588              		@ frame_needed = 0, uses_anonymous_args = 0
 589 0000 08B5     		push	{r3, lr}
 590              	.LCFI1:
 591              		.cfi_def_cfa_offset 8
 592              		.cfi_offset 3, -8
 593              		.cfi_offset 14, -4
  41:Middlewares/ST/STM32_USBPD_Library/Devices/STM32G4XX/src/usbpd_hw_if_it.c **** }
 594              		.loc 1 41 3 view .LVU179
 595 0002 0020     		movs	r0, #0
 596 0004 FFF7FEFF 		bl	PORTx_IRQHandler
 597              	.LVL53:
  42:Middlewares/ST/STM32_USBPD_Library/Devices/STM32G4XX/src/usbpd_hw_if_it.c **** 
 598              		.loc 1 42 1 is_stmt 0 view .LVU180
 599 0008 08BD     		pop	{r3, pc}
 600              		.cfi_endproc
 601              	.LFE950:
 603              		.section	.bss.ovrflag.0,"aw",%nobits
 604              		.set	.LANCHOR0,. + 0
 607              	ovrflag.0:
 608 0000 00       		.space	1
 609              		.text
 610              	.Letext0:
 611              		.file 3 "/opt/homebrew/Cellar/arm-none-eabi-gcc/10.3-2021.10/gcc/arm-none-eabi/include/machine/_de
ARM GAS  /var/folders/kd/c99kx6qx51n19rszfxl6vhn80000gp/T//ccdYvVMp.s 			page 43


 612              		.file 4 "/opt/homebrew/Cellar/arm-none-eabi-gcc/10.3-2021.10/gcc/arm-none-eabi/include/sys/_stdint
 613              		.file 5 "Drivers/CMSIS/Device/ST/STM32G4xx/Include/stm32g431xx.h"
 614              		.file 6 "Drivers/STM32G4xx_HAL_Driver/Inc/stm32g4xx_ll_dma.h"
 615              		.file 7 "Drivers/STM32G4xx_HAL_Driver/Inc/stm32g4xx_ll_tim.h"
 616              		.file 8 "Middlewares/ST/STM32_USBPD_Library/Core/inc/usbpd_def.h"
 617              		.file 9 "Middlewares/ST/STM32_USBPD_Library/Devices/STM32G4XX/inc/usbpd_hw_if.h"
ARM GAS  /var/folders/kd/c99kx6qx51n19rszfxl6vhn80000gp/T//ccdYvVMp.s 			page 44

